
PVDXos_bootloader.elf:     file format elf32-littlearm

Sections:
Idx Name          Size      VMA       LMA       File off  Algn
  0 .text         0000101c  00006000  00006000  00001000  2**3
                  CONTENTS, ALLOC, LOAD, READONLY, CODE
  1 .relocate     00000004  2003d000  0000701c  00003000  2**2
                  CONTENTS, ALLOC, LOAD, DATA
  2 .bkupram      00000000  47000000  47000000  00003004  2**0
                  CONTENTS
  3 .qspi         00000000  04000000  04000000  00003004  2**0
                  CONTENTS
  4 .bss          00000048  2003d004  00007020  00003004  2**2
                  ALLOC
  5 .stack        00001004  2003d04c  00007068  00003004  2**0
                  ALLOC
  6 .ARM.attributes 0000002e  00000000  00000000  00003004  2**0
                  CONTENTS, READONLY
  7 .comment      00000046  00000000  00000000  00003032  2**0
                  CONTENTS, READONLY
  8 .debug_info   00019449  00000000  00000000  00003078  2**0
                  CONTENTS, READONLY, DEBUGGING, OCTETS
  9 .debug_abbrev 00002e79  00000000  00000000  0001c4c1  2**0
                  CONTENTS, READONLY, DEBUGGING, OCTETS
 10 .debug_loclists 0000657f  00000000  00000000  0001f33a  2**0
                  CONTENTS, READONLY, DEBUGGING, OCTETS
 11 .debug_aranges 000009c8  00000000  00000000  000258b9  2**0
                  CONTENTS, READONLY, DEBUGGING, OCTETS
 12 .debug_rnglists 00000dc6  00000000  00000000  00026281  2**0
                  CONTENTS, READONLY, DEBUGGING, OCTETS
 13 .debug_macro  0003639c  00000000  00000000  00027047  2**0
                  CONTENTS, READONLY, DEBUGGING, OCTETS
 14 .debug_line   00011122  00000000  00000000  0005d3e3  2**0
                  CONTENTS, READONLY, DEBUGGING, OCTETS
 15 .debug_str    000f8b20  00000000  00000000  0006e505  2**0
                  CONTENTS, READONLY, DEBUGGING, OCTETS
 16 .debug_frame  00001688  00000000  00000000  00167028  2**2
                  CONTENTS, READONLY, DEBUGGING, OCTETS

Disassembly of section .text:

00006000 <exception_table>:
    6000:	50 e0 03 20 fd 6e 00 00 f9 6e 00 00 f9 6e 00 00     P.. .n...n...n..
    6010:	f9 6e 00 00 f9 6e 00 00 f9 6e 00 00 00 00 00 00     .n...n...n......
	...
    602c:	f9 6e 00 00 f9 6e 00 00 00 00 00 00 f9 6e 00 00     .n...n.......n..
    603c:	f9 6e 00 00 f9 6e 00 00 f9 6e 00 00 f9 6e 00 00     .n...n...n...n..
    604c:	f9 6e 00 00 f9 6e 00 00 f9 6e 00 00 f9 6e 00 00     .n...n...n...n..
    605c:	f9 6e 00 00 f9 6e 00 00 f9 6e 00 00 f9 6e 00 00     .n...n...n...n..
    606c:	f9 6e 00 00 f9 6e 00 00 f9 6e 00 00 f9 6e 00 00     .n...n...n...n..
    607c:	f9 6e 00 00 f9 6e 00 00 f9 6e 00 00 f9 6e 00 00     .n...n...n...n..
    608c:	f9 6e 00 00 f9 6e 00 00 f9 6e 00 00 f9 6e 00 00     .n...n...n...n..
    609c:	f9 6e 00 00 f9 6e 00 00 f9 6e 00 00 f9 6e 00 00     .n...n...n...n..
    60ac:	f9 6e 00 00 f9 6e 00 00 f9 6e 00 00 f9 6e 00 00     .n...n...n...n..
    60bc:	f9 6e 00 00 f9 6e 00 00 f9 6e 00 00 f9 6e 00 00     .n...n...n...n..
    60cc:	f9 6e 00 00 f9 6e 00 00 f9 6e 00 00 f9 6e 00 00     .n...n...n...n..
    60dc:	f9 6e 00 00 f9 6e 00 00 f9 6e 00 00 00 00 00 00     .n...n...n......
	...
    60f4:	59 6a 00 00 f9 6e 00 00 f9 6e 00 00 f9 6e 00 00     Yj...n...n...n..
    6104:	f9 6e 00 00 f9 6e 00 00 f9 6e 00 00 f9 6e 00 00     .n...n...n...n..
    6114:	f9 6e 00 00 f9 6e 00 00 f9 6e 00 00 f9 6e 00 00     .n...n...n...n..
    6124:	f9 6e 00 00 f9 6e 00 00 f9 6e 00 00 f9 6e 00 00     .n...n...n...n..
    6134:	f9 6e 00 00 f9 6e 00 00 f9 6e 00 00 f9 6e 00 00     .n...n...n...n..
    6144:	f9 6e 00 00 f9 6e 00 00 f9 6e 00 00 f9 6e 00 00     .n...n...n...n..
    6154:	f9 6e 00 00 f9 6e 00 00 f9 6e 00 00 f9 6e 00 00     .n...n...n...n..
    6164:	f9 6e 00 00 f9 6e 00 00 f9 6e 00 00 f9 6e 00 00     .n...n...n...n..
    6174:	f9 6e 00 00 00 00 00 00 00 00 00 00 f9 6e 00 00     .n...........n..
    6184:	f9 6e 00 00 f9 6e 00 00 f9 6e 00 00 00 00 00 00     .n...n...n......
    6194:	f9 6e 00 00 f9 6e 00 00 f9 6e 00 00 f9 6e 00 00     .n...n...n...n..
    61a4:	f9 6e 00 00 f9 6e 00 00 f9 6e 00 00 f9 6e 00 00     .n...n...n...n..
    61b4:	f9 6e 00 00 f9 6e 00 00 f9 6e 00 00 f9 6e 00 00     .n...n...n...n..
    61c4:	f9 6e 00 00 f9 6e 00 00 f9 6e 00 00 f9 6e 00 00     .n...n...n...n..
    61d4:	f9 6e 00 00 f9 6e 00 00 f9 6e 00 00 f9 6e 00 00     .n...n...n...n..
    61e4:	f9 6e 00 00 f9 6e 00 00 f9 6e 00 00 f9 6e 00 00     .n...n...n...n..
    61f4:	f9 6e 00 00 f9 6e 00 00 f9 6e 00 00 f9 6e 00 00     .n...n...n...n..
    6204:	f9 6e 00 00 f9 6e 00 00 f9 6e 00 00 f9 6e 00 00     .n...n...n...n..
    6214:	f9 6e 00 00 f9 6e 00 00 f9 6e 00 00 f9 6e 00 00     .n...n...n...n..
    6224:	f9 6e 00 00 f9 6e 00 00 f9 6e 00 00 f9 6e 00 00     .n...n...n...n..
    6234:	f9 6e 00 00 f9 6e 00 00 f9 6e 00 00 f9 6e 00 00     .n...n...n...n..
    6244:	f9 6e 00 00 f9 6e 00 00 f9 6e 00 00 f9 6e 00 00     .n...n...n...n..
    6254:	f9 6e 00 00 f9 6e 00 00 f9 6e 00 00 f9 6e 00 00     .n...n...n...n..

00006264 <deregister_tm_clones>:
    6264:	4803      	ldr	r0, [pc, #12]	@ (6274 <deregister_tm_clones+0x10>)
    6266:	4b04      	ldr	r3, [pc, #16]	@ (6278 <deregister_tm_clones+0x14>)
    6268:	4283      	cmp	r3, r0
    626a:	d002      	beq.n	6272 <deregister_tm_clones+0xe>
    626c:	4b03      	ldr	r3, [pc, #12]	@ (627c <deregister_tm_clones+0x18>)
    626e:	b103      	cbz	r3, 6272 <deregister_tm_clones+0xe>
    6270:	4718      	bx	r3
    6272:	4770      	bx	lr
    6274:	0000701c 	.word	0x0000701c
    6278:	0000701c 	.word	0x0000701c
    627c:	00000000 	.word	0x00000000

00006280 <register_tm_clones>:
    6280:	4805      	ldr	r0, [pc, #20]	@ (6298 <register_tm_clones+0x18>)
    6282:	4b06      	ldr	r3, [pc, #24]	@ (629c <register_tm_clones+0x1c>)
    6284:	1a1b      	subs	r3, r3, r0
    6286:	0fd9      	lsrs	r1, r3, #31
    6288:	eb01 01a3 	add.w	r1, r1, r3, asr #2
    628c:	1049      	asrs	r1, r1, #1
    628e:	d002      	beq.n	6296 <register_tm_clones+0x16>
    6290:	4b03      	ldr	r3, [pc, #12]	@ (62a0 <register_tm_clones+0x20>)
    6292:	b103      	cbz	r3, 6296 <register_tm_clones+0x16>
    6294:	4718      	bx	r3
    6296:	4770      	bx	lr
    6298:	0000701c 	.word	0x0000701c
    629c:	0000701c 	.word	0x0000701c
    62a0:	00000000 	.word	0x00000000

000062a4 <__do_global_dtors_aux>:
    62a4:	b510      	push	{r4, lr}
    62a6:	4c06      	ldr	r4, [pc, #24]	@ (62c0 <__do_global_dtors_aux+0x1c>)
    62a8:	7823      	ldrb	r3, [r4, #0]
    62aa:	b943      	cbnz	r3, 62be <__do_global_dtors_aux+0x1a>
    62ac:	f7ff ffda 	bl	6264 <deregister_tm_clones>
    62b0:	4b04      	ldr	r3, [pc, #16]	@ (62c4 <__do_global_dtors_aux+0x20>)
    62b2:	b113      	cbz	r3, 62ba <__do_global_dtors_aux+0x16>
    62b4:	4804      	ldr	r0, [pc, #16]	@ (62c8 <__do_global_dtors_aux+0x24>)
    62b6:	f3af 8000 	nop.w
    62ba:	2301      	movs	r3, #1
    62bc:	7023      	strb	r3, [r4, #0]
    62be:	bd10      	pop	{r4, pc}
    62c0:	2003d004 	.word	0x2003d004
    62c4:	00000000 	.word	0x00000000
    62c8:	0000701c 	.word	0x0000701c

000062cc <frame_dummy>:
    62cc:	b508      	push	{r3, lr}
    62ce:	4b05      	ldr	r3, [pc, #20]	@ (62e4 <frame_dummy+0x18>)
    62d0:	b11b      	cbz	r3, 62da <frame_dummy+0xe>
    62d2:	4905      	ldr	r1, [pc, #20]	@ (62e8 <frame_dummy+0x1c>)
    62d4:	4805      	ldr	r0, [pc, #20]	@ (62ec <frame_dummy+0x20>)
    62d6:	f3af 8000 	nop.w
    62da:	e8bd 4008 	ldmia.w	sp!, {r3, lr}
    62de:	f7ff bfcf 	b.w	6280 <register_tm_clones>
    62e2:	bf00      	nop
    62e4:	00000000 	.word	0x00000000
    62e8:	2003d008 	.word	0x2003d008
    62ec:	0000701c 	.word	0x0000701c

000062f0 <go_to_app>:
}

void go_to_app(void) {
    // Read app's vector table (first value is SP, second value is PC)
    long *vector_table = (long *)APP_RAM_START;
    long desired_sp = vector_table[0];
    62f0:	f04f 5200 	mov.w	r2, #536870912	@ 0x20000000
    long desired_pc = vector_table[1];
    62f4:	e9d2 1300 	ldrd	r1, r3, [r2]

    // Set the least significant bit of the PC to indicate that the reset vector is in Thumb mode
    desired_pc |= 0x1;

    // Tell the SAMD51 where the app's vector table is
    *((long *)SCB_VTOR) = (long)vector_table;
    62f8:	f04f 20e0 	mov.w	r0, #3758153728	@ 0xe000e000
    desired_pc |= 0x1;
    62fc:	f043 0301 	orr.w	r3, r3, #1
    *((long *)SCB_VTOR) = (long)vector_table;
    6300:	f8c0 2d08 	str.w	r2, [r0, #3336]	@ 0xd08

    // Set SP to desired_sp and then jump to PC using assembly
    __asm__ volatile(
    6304:	468d      	mov	sp, r1
    6306:	4718      	bx	r3
        "mov sp, %0\n" // Move the value in desired_sp into SP
        "bx %1"        // Branch to the address contained in desired_pc
        :
        : "r"(desired_sp), "r"(desired_pc) // Arguments to the assembly (accessed as %0 and %1 in the assembly code)
        :);
    6308:	4770      	bx	lr
	...

0000630c <main>:
int main(void) {
    630c:	b508      	push	{r3, lr}
    while (startup_test_value != 8);
    630e:	4a12      	ldr	r2, [pc, #72]	@ (6358 <main+0x4c>)
    6310:	6813      	ldr	r3, [r2, #0]
    6312:	2b08      	cmp	r3, #8
    6314:	d1fc      	bne.n	6310 <main+0x4>
    6316:	f44f 42c0 	mov.w	r2, #24576	@ 0x6000
    uint32_t checksum = 0;
    631a:	2300      	movs	r3, #0
        checksum += cur_bootloader_start[i];
    631c:	f812 1b01 	ldrb.w	r1, [r2], #1
    for (uint32_t i = 0; i < BOOTLOADER_SIZE; i++) {
    6320:	f5b2 4f10 	cmp.w	r2, #36864	@ 0x9000
        checksum += cur_bootloader_start[i];
    6324:	440b      	add	r3, r1
    for (uint32_t i = 0; i < BOOTLOADER_SIZE; i++) {
    6326:	d1f9      	bne.n	631c <main+0x10>
    checksum %= 256;
    6328:	b2db      	uxtb	r3, r3
    if (checksum != 0) {
    632a:	b103      	cbz	r3, 632e <main+0x22>
        while (bootloader_index == 2);
    632c:	e7fe      	b.n	632c <main+0x20>
    mram_init();
    632e:	4b0b      	ldr	r3, [pc, #44]	@ (635c <main+0x50>)
    6330:	4798      	blx	r3
    mram_write_bytes(0x100, (uint8_t *)src, RAM_SIZE);
    6332:	4b0b      	ldr	r3, [pc, #44]	@ (6360 <main+0x54>)
    6334:	f44f 3240 	mov.w	r2, #196608	@ 0x30000
    6338:	f44f 3180 	mov.w	r1, #65536	@ 0x10000
    633c:	f44f 7080 	mov.w	r0, #256	@ 0x100
    6340:	4798      	blx	r3
    mram_read_bytes(0x100, (uint8_t *)dst, RAM_SIZE);
    6342:	4b08      	ldr	r3, [pc, #32]	@ (6364 <main+0x58>)
    6344:	f44f 3240 	mov.w	r2, #196608	@ 0x30000
    6348:	f04f 5100 	mov.w	r1, #536870912	@ 0x20000000
    634c:	f44f 7080 	mov.w	r0, #256	@ 0x100
    6350:	4798      	blx	r3
    go_to_app();
    6352:	4b05      	ldr	r3, [pc, #20]	@ (6368 <main+0x5c>)
    6354:	4798      	blx	r3
    __builtin_unreachable();
    6356:	bf00      	nop
    6358:	2003d000 	.word	0x2003d000
    635c:	0000678d 	.word	0x0000678d
    6360:	00006761 	.word	0x00006761
    6364:	000066ed 	.word	0x000066ed
    6368:	000062f1 	.word	0x000062f1

0000636c <mram_select>:
// ---------------------- SPI Helpers ----------------------

void mram_fatal(void) { while (1); }

static inline void mram_select(uint8_t mram) {
    if (mram == 1) {
    636c:	2801      	cmp	r0, #1
    636e:	d104      	bne.n	637a <mram_select+0xe>
	((Port *)hw)->Group[submodule_index].OUTCLR.reg = ~data;
}

static inline void hri_port_clear_OUT_reg(const void *const hw, uint8_t submodule_index, hri_port_out_reg_t mask)
{
	((Port *)hw)->Group[submodule_index].OUTCLR.reg = mask;
    6370:	4b04      	ldr	r3, [pc, #16]	@ (6384 <mram_select+0x18>)
    6372:	2210      	movs	r2, #16
    6374:	f8c3 2114 	str.w	r2, [r3, #276]	@ 0x114
    } else if (mram == 3) {
        gpio_set_pin_level(MRAM3_CS, false);
    } else {
        mram_fatal();
    }
}
    6378:	4770      	bx	lr
    } else if (mram == 2) {
    637a:	2802      	cmp	r0, #2
    637c:	d0f8      	beq.n	6370 <mram_select+0x4>
    } else if (mram == 3) {
    637e:	2803      	cmp	r0, #3
    6380:	d0f6      	beq.n	6370 <mram_select+0x4>
    6382:	e7fe      	b.n	6382 <mram_select+0x16>
    6384:	41008000 	.word	0x41008000

00006388 <mram_deselect>:

static inline void mram_deselect(uint8_t mram) {
    if (mram == 1) {
    6388:	2801      	cmp	r0, #1
    638a:	d104      	bne.n	6396 <mram_deselect+0xe>
	((Port *)hw)->Group[submodule_index].OUTSET.reg = mask;
    638c:	4b04      	ldr	r3, [pc, #16]	@ (63a0 <mram_deselect+0x18>)
    638e:	2210      	movs	r2, #16
    6390:	f8c3 2118 	str.w	r2, [r3, #280]	@ 0x118
    } else if (mram == 3) {
        gpio_set_pin_level(MRAM3_CS, true);
    } else {
        mram_fatal();
    }
}
    6394:	4770      	bx	lr
    } else if (mram == 2) {
    6396:	2802      	cmp	r0, #2
    6398:	d0f8      	beq.n	638c <mram_deselect+0x4>
    } else if (mram == 3) {
    639a:	2803      	cmp	r0, #3
    639c:	d0f6      	beq.n	638c <mram_deselect+0x4>
    639e:	e7fe      	b.n	639e <mram_deselect+0x16>
    63a0:	41008000 	.word	0x41008000

000063a4 <spi_write>:

void spi_write(const uint8_t *data, uint32_t len) {
    63a4:	b51f      	push	{r0, r1, r2, r3, r4, lr}
    struct spi_xfer xfer = {
    63a6:	2300      	movs	r3, #0
    63a8:	e9cd 3102 	strd	r3, r1, [sp, #8]
    63ac:	9001      	str	r0, [sp, #4]
        .txbuf = (uint8_t*)data,
        .rxbuf = NULL,
        .size  = len
    };
    spi_m_sync_transfer(&SPI_MRAM, &xfer);
    63ae:	4b03      	ldr	r3, [pc, #12]	@ (63bc <spi_write+0x18>)
    63b0:	4803      	ldr	r0, [pc, #12]	@ (63c0 <spi_write+0x1c>)
    63b2:	a901      	add	r1, sp, #4
    63b4:	4798      	blx	r3
}
    63b6:	b005      	add	sp, #20
    63b8:	f85d fb04 	ldr.w	pc, [sp], #4
    63bc:	00006845 	.word	0x00006845
    63c0:	2003d034 	.word	0x2003d034

000063c4 <spi_read>:

void spi_read(uint8_t *data, uint32_t len) {
    63c4:	b51f      	push	{r0, r1, r2, r3, r4, lr}
    struct spi_xfer xfer = {
    63c6:	2300      	movs	r3, #0
    63c8:	e9cd 3001 	strd	r3, r0, [sp, #4]
    63cc:	9103      	str	r1, [sp, #12]
        .txbuf = NULL,
        .rxbuf = data,
        .size  = len
    };
    spi_m_sync_transfer(&SPI_MRAM, &xfer);
    63ce:	4b03      	ldr	r3, [pc, #12]	@ (63dc <spi_read+0x18>)
    63d0:	4803      	ldr	r0, [pc, #12]	@ (63e0 <spi_read+0x1c>)
    63d2:	a901      	add	r1, sp, #4
    63d4:	4798      	blx	r3
}
    63d6:	b005      	add	sp, #20
    63d8:	f85d fb04 	ldr.w	pc, [sp], #4
    63dc:	00006845 	.word	0x00006845
    63e0:	2003d034 	.word	0x2003d034

000063e4 <write_enable>:

// ---------------------- MRAM Commands ----------------------

void write_enable(uint8_t mram) {
    63e4:	b513      	push	{r0, r1, r4, lr}
    uint8_t cmd = CMD_WREN;
    63e6:	2306      	movs	r3, #6
    63e8:	f88d 3007 	strb.w	r3, [sp, #7]
    mram_select(mram);
    63ec:	4b06      	ldr	r3, [pc, #24]	@ (6408 <write_enable+0x24>)
    63ee:	4798      	blx	r3
void write_enable(uint8_t mram) {
    63f0:	4604      	mov	r4, r0
    spi_write(&cmd, 1);
    63f2:	4b06      	ldr	r3, [pc, #24]	@ (640c <write_enable+0x28>)
    63f4:	f10d 0007 	add.w	r0, sp, #7
    63f8:	2101      	movs	r1, #1
    63fa:	4798      	blx	r3
    mram_deselect(mram);
    63fc:	4b04      	ldr	r3, [pc, #16]	@ (6410 <write_enable+0x2c>)
    63fe:	4620      	mov	r0, r4
    6400:	4798      	blx	r3
}
    6402:	b002      	add	sp, #8
    6404:	bd10      	pop	{r4, pc}
    6406:	bf00      	nop
    6408:	0000636d 	.word	0x0000636d
    640c:	000063a5 	.word	0x000063a5
    6410:	00006389 	.word	0x00006389

00006414 <read_status>:

uint8_t read_status(uint8_t mram) {
    6414:	b513      	push	{r0, r1, r4, lr}
    uint8_t cmd = CMD_RDSR;
    6416:	2305      	movs	r3, #5
    6418:	f88d 3006 	strb.w	r3, [sp, #6]
    uint8_t val = 0;
    641c:	2300      	movs	r3, #0
    641e:	f88d 3007 	strb.w	r3, [sp, #7]
    mram_select(mram);
    6422:	4b0a      	ldr	r3, [pc, #40]	@ (644c <read_status+0x38>)
    6424:	4798      	blx	r3
uint8_t read_status(uint8_t mram) {
    6426:	4604      	mov	r4, r0
    spi_write(&cmd, 1);
    6428:	4b09      	ldr	r3, [pc, #36]	@ (6450 <read_status+0x3c>)
    642a:	f10d 0006 	add.w	r0, sp, #6
    642e:	2101      	movs	r1, #1
    6430:	4798      	blx	r3
    spi_read(&val, 1);
    6432:	f10d 0007 	add.w	r0, sp, #7
    6436:	4b07      	ldr	r3, [pc, #28]	@ (6454 <read_status+0x40>)
    6438:	2101      	movs	r1, #1
    643a:	4798      	blx	r3
    mram_deselect(mram);
    643c:	4620      	mov	r0, r4
    643e:	4b06      	ldr	r3, [pc, #24]	@ (6458 <read_status+0x44>)
    6440:	4798      	blx	r3
    return val;
}
    6442:	f89d 0007 	ldrb.w	r0, [sp, #7]
    6446:	b002      	add	sp, #8
    6448:	bd10      	pop	{r4, pc}
    644a:	bf00      	nop
    644c:	0000636d 	.word	0x0000636d
    6450:	000063a5 	.word	0x000063a5
    6454:	000063c5 	.word	0x000063c5
    6458:	00006389 	.word	0x00006389

0000645c <write_status>:

void write_status(uint8_t mram, uint8_t value) {
    645c:	b513      	push	{r0, r1, r4, lr}
    uint8_t buf[2] = {CMD_WRSR, value};
    645e:	2301      	movs	r3, #1
void write_status(uint8_t mram, uint8_t value) {
    6460:	4604      	mov	r4, r0
    uint8_t buf[2] = {CMD_WRSR, value};
    6462:	f88d 3004 	strb.w	r3, [sp, #4]
    write_enable(mram);
    6466:	4b08      	ldr	r3, [pc, #32]	@ (6488 <write_status+0x2c>)
    uint8_t buf[2] = {CMD_WRSR, value};
    6468:	f88d 1005 	strb.w	r1, [sp, #5]
    write_enable(mram);
    646c:	4798      	blx	r3
    mram_select(mram);
    646e:	4620      	mov	r0, r4
    6470:	4b06      	ldr	r3, [pc, #24]	@ (648c <write_status+0x30>)
    6472:	4798      	blx	r3
    spi_write(buf, 2);
    6474:	2102      	movs	r1, #2
    6476:	a801      	add	r0, sp, #4
    6478:	4b05      	ldr	r3, [pc, #20]	@ (6490 <write_status+0x34>)
    647a:	4798      	blx	r3
    mram_deselect(mram);
    647c:	4b05      	ldr	r3, [pc, #20]	@ (6494 <write_status+0x38>)
    647e:	4620      	mov	r0, r4
    6480:	4798      	blx	r3
}
    6482:	b002      	add	sp, #8
    6484:	bd10      	pop	{r4, pc}
    6486:	bf00      	nop
    6488:	000063e5 	.word	0x000063e5
    648c:	0000636d 	.word	0x0000636d
    6490:	000063a5 	.word	0x000063a5
    6494:	00006389 	.word	0x00006389

00006498 <read_bytes>:

void read_bytes(uint8_t mram, uint32_t address, uint8_t *data, uint32_t size) {
    6498:	b573      	push	{r0, r1, r4, r5, r6, lr}
    649a:	461e      	mov	r6, r3
    uint8_t cmd[4] = {
    649c:	2303      	movs	r3, #3
    649e:	f88d 3004 	strb.w	r3, [sp, #4]
        CMD_READ,
        (uint8_t)(address >> 16),
    64a2:	0c0b      	lsrs	r3, r1, #16
    uint8_t cmd[4] = {
    64a4:	ba49      	rev16	r1, r1
        (uint8_t)(address >> 16),
    64a6:	f88d 3005 	strb.w	r3, [sp, #5]
    uint8_t cmd[4] = {
    64aa:	f8ad 1006 	strh.w	r1, [sp, #6]
        (uint8_t)(address >> 8),
        (uint8_t)(address)
    };
    mram_select(mram);
    64ae:	4b09      	ldr	r3, [pc, #36]	@ (64d4 <read_bytes+0x3c>)
    spi_write(cmd, 4);
    64b0:	2104      	movs	r1, #4
void read_bytes(uint8_t mram, uint32_t address, uint8_t *data, uint32_t size) {
    64b2:	4615      	mov	r5, r2
    64b4:	4604      	mov	r4, r0
    mram_select(mram);
    64b6:	4798      	blx	r3
    spi_write(cmd, 4);
    64b8:	eb0d 0001 	add.w	r0, sp, r1
    64bc:	4b06      	ldr	r3, [pc, #24]	@ (64d8 <read_bytes+0x40>)
    64be:	4798      	blx	r3
    spi_read(data, size);
    64c0:	4628      	mov	r0, r5
    64c2:	4b06      	ldr	r3, [pc, #24]	@ (64dc <read_bytes+0x44>)
    64c4:	4631      	mov	r1, r6
    64c6:	4798      	blx	r3
    mram_deselect(mram);
    64c8:	4b05      	ldr	r3, [pc, #20]	@ (64e0 <read_bytes+0x48>)
    64ca:	4620      	mov	r0, r4
    64cc:	4798      	blx	r3
}
    64ce:	b002      	add	sp, #8
    64d0:	bd70      	pop	{r4, r5, r6, pc}
    64d2:	bf00      	nop
    64d4:	0000636d 	.word	0x0000636d
    64d8:	000063a5 	.word	0x000063a5
    64dc:	000063c5 	.word	0x000063c5
    64e0:	00006389 	.word	0x00006389

000064e4 <write_bytes>:

void write_bytes(uint8_t mram, uint32_t address, const uint8_t *data, uint32_t size) {
    64e4:	b5f7      	push	{r0, r1, r2, r4, r5, r6, r7, lr}
    64e6:	461e      	mov	r6, r3
    uint8_t hdr[4] = {
    64e8:	2302      	movs	r3, #2
    64ea:	f88d 3004 	strb.w	r3, [sp, #4]
        CMD_WRITE,
        (uint8_t)(address >> 16),
    64ee:	0c0b      	lsrs	r3, r1, #16
void write_bytes(uint8_t mram, uint32_t address, const uint8_t *data, uint32_t size) {
    64f0:	4604      	mov	r4, r0
        (uint8_t)(address >> 16),
    64f2:	f88d 3005 	strb.w	r3, [sp, #5]
    uint8_t hdr[4] = {
    64f6:	ba49      	rev16	r1, r1
        (uint8_t)(address >> 8),
        (uint8_t)(address)
    };
    write_enable(mram);
    64f8:	4b0a      	ldr	r3, [pc, #40]	@ (6524 <write_bytes+0x40>)
    uint8_t hdr[4] = {
    64fa:	f8ad 1006 	strh.w	r1, [sp, #6]
void write_bytes(uint8_t mram, uint32_t address, const uint8_t *data, uint32_t size) {
    64fe:	4615      	mov	r5, r2
    write_enable(mram);
    6500:	4798      	blx	r3
    mram_select(mram);
    6502:	4b09      	ldr	r3, [pc, #36]	@ (6528 <write_bytes+0x44>)
    spi_write(hdr, 4);
    6504:	4f09      	ldr	r7, [pc, #36]	@ (652c <write_bytes+0x48>)
    mram_select(mram);
    6506:	4620      	mov	r0, r4
    spi_write(hdr, 4);
    6508:	2104      	movs	r1, #4
    mram_select(mram);
    650a:	4798      	blx	r3
    spi_write(hdr, 4);
    650c:	eb0d 0001 	add.w	r0, sp, r1
    6510:	47b8      	blx	r7
    spi_write(data, size);
    6512:	4628      	mov	r0, r5
    6514:	4631      	mov	r1, r6
    6516:	47b8      	blx	r7
    mram_deselect(mram);
    6518:	4b05      	ldr	r3, [pc, #20]	@ (6530 <write_bytes+0x4c>)
    651a:	4620      	mov	r0, r4
    651c:	4798      	blx	r3
}
    651e:	b003      	add	sp, #12
    6520:	bdf0      	pop	{r4, r5, r6, r7, pc}
    6522:	bf00      	nop
    6524:	000063e5 	.word	0x000063e5
    6528:	0000636d 	.word	0x0000636d
    652c:	000063a5 	.word	0x000063a5
    6530:	00006389 	.word	0x00006389

00006534 <read_nonvol_reg>:

uint8_t read_nonvol_reg(uint8_t mram, uint8_t reg) {
    6534:	b513      	push	{r0, r1, r4, lr}
    uint8_t cmd[4] = {
    6536:	23b5      	movs	r3, #181	@ 0xb5
    6538:	f8ad 3004 	strh.w	r3, [sp, #4]
    653c:	2300      	movs	r3, #0
    653e:	f88d 3006 	strb.w	r3, [sp, #6]
    6542:	f88d 1007 	strb.w	r1, [sp, #7]
        CMD_RDNVOL,
        0,
        0,
        reg
    };
    uint8_t reg_val = 0;
    6546:	f88d 3003 	strb.w	r3, [sp, #3]
    mram_select(mram);
    spi_write(cmd, 4);
    654a:	2104      	movs	r1, #4
    mram_select(mram);
    654c:	4b09      	ldr	r3, [pc, #36]	@ (6574 <read_nonvol_reg+0x40>)
    654e:	4798      	blx	r3
uint8_t read_nonvol_reg(uint8_t mram, uint8_t reg) {
    6550:	4604      	mov	r4, r0
    spi_write(cmd, 4);
    6552:	4b09      	ldr	r3, [pc, #36]	@ (6578 <read_nonvol_reg+0x44>)
    6554:	eb0d 0001 	add.w	r0, sp, r1
    6558:	4798      	blx	r3
    spi_read(&reg_val, 1);
    655a:	f10d 0003 	add.w	r0, sp, #3
    655e:	4b07      	ldr	r3, [pc, #28]	@ (657c <read_nonvol_reg+0x48>)
    6560:	2101      	movs	r1, #1
    6562:	4798      	blx	r3
    mram_deselect(mram);
    6564:	4620      	mov	r0, r4
    6566:	4b06      	ldr	r3, [pc, #24]	@ (6580 <read_nonvol_reg+0x4c>)
    6568:	4798      	blx	r3
    return reg_val;
}
    656a:	f89d 0003 	ldrb.w	r0, [sp, #3]
    656e:	b002      	add	sp, #8
    6570:	bd10      	pop	{r4, pc}
    6572:	bf00      	nop
    6574:	0000636d 	.word	0x0000636d
    6578:	000063a5 	.word	0x000063a5
    657c:	000063c5 	.word	0x000063c5
    6580:	00006389 	.word	0x00006389

00006584 <read_vol_reg>:

uint8_t read_vol_reg(uint8_t mram, uint8_t reg) {
    6584:	b513      	push	{r0, r1, r4, lr}
    uint8_t cmd[4] = {
    6586:	2385      	movs	r3, #133	@ 0x85
    6588:	f8ad 3004 	strh.w	r3, [sp, #4]
    658c:	2300      	movs	r3, #0
    658e:	f88d 3006 	strb.w	r3, [sp, #6]
    6592:	f88d 1007 	strb.w	r1, [sp, #7]
        CMD_RDVOL,
        0,
        0,
        reg
    };
    uint8_t reg_val = 0;
    6596:	f88d 3003 	strb.w	r3, [sp, #3]
    mram_select(mram);
    spi_write(cmd, 4);
    659a:	2104      	movs	r1, #4
    mram_select(mram);
    659c:	4b09      	ldr	r3, [pc, #36]	@ (65c4 <read_vol_reg+0x40>)
    659e:	4798      	blx	r3
uint8_t read_vol_reg(uint8_t mram, uint8_t reg) {
    65a0:	4604      	mov	r4, r0
    spi_write(cmd, 4);
    65a2:	4b09      	ldr	r3, [pc, #36]	@ (65c8 <read_vol_reg+0x44>)
    65a4:	eb0d 0001 	add.w	r0, sp, r1
    65a8:	4798      	blx	r3
    spi_read(&reg_val, 1);
    65aa:	f10d 0003 	add.w	r0, sp, #3
    65ae:	4b07      	ldr	r3, [pc, #28]	@ (65cc <read_vol_reg+0x48>)
    65b0:	2101      	movs	r1, #1
    65b2:	4798      	blx	r3
    mram_deselect(mram);
    65b4:	4620      	mov	r0, r4
    65b6:	4b06      	ldr	r3, [pc, #24]	@ (65d0 <read_vol_reg+0x4c>)
    65b8:	4798      	blx	r3
    return reg_val;
}
    65ba:	f89d 0003 	ldrb.w	r0, [sp, #3]
    65be:	b002      	add	sp, #8
    65c0:	bd10      	pop	{r4, pc}
    65c2:	bf00      	nop
    65c4:	0000636d 	.word	0x0000636d
    65c8:	000063a5 	.word	0x000063a5
    65cc:	000063c5 	.word	0x000063c5
    65d0:	00006389 	.word	0x00006389

000065d4 <write_vol_reg>:

void write_vol_reg(uint8_t mram, uint8_t reg, uint8_t reg_val) {
    65d4:	b530      	push	{r4, r5, lr}
    65d6:	b085      	sub	sp, #20
    uint8_t cmd[4] = {
    65d8:	2381      	movs	r3, #129	@ 0x81
    65da:	f8ad 300c 	strh.w	r3, [sp, #12]
    65de:	2300      	movs	r3, #0
void write_vol_reg(uint8_t mram, uint8_t reg, uint8_t reg_val) {
    65e0:	4604      	mov	r4, r0
    uint8_t cmd[4] = {
    65e2:	f88d 300e 	strb.w	r3, [sp, #14]
        CMD_WRVOL,
        0,
        0,
        reg
    };
    write_enable(mram);
    65e6:	4b0b      	ldr	r3, [pc, #44]	@ (6614 <write_vol_reg+0x40>)
void write_vol_reg(uint8_t mram, uint8_t reg, uint8_t reg_val) {
    65e8:	f88d 2007 	strb.w	r2, [sp, #7]
    uint8_t cmd[4] = {
    65ec:	f88d 100f 	strb.w	r1, [sp, #15]
    write_enable(mram);
    65f0:	4798      	blx	r3
    mram_select(mram);
    65f2:	4b09      	ldr	r3, [pc, #36]	@ (6618 <write_vol_reg+0x44>)
    spi_write(cmd, 4);
    65f4:	4d09      	ldr	r5, [pc, #36]	@ (661c <write_vol_reg+0x48>)
    mram_select(mram);
    65f6:	4620      	mov	r0, r4
    65f8:	4798      	blx	r3
    spi_write(cmd, 4);
    65fa:	2104      	movs	r1, #4
    65fc:	a803      	add	r0, sp, #12
    65fe:	47a8      	blx	r5
    spi_write(&reg_val, 1);
    6600:	f10d 0007 	add.w	r0, sp, #7
    6604:	2101      	movs	r1, #1
    6606:	47a8      	blx	r5
    mram_deselect(mram);
    6608:	4b05      	ldr	r3, [pc, #20]	@ (6620 <write_vol_reg+0x4c>)
    660a:	4620      	mov	r0, r4
    660c:	4798      	blx	r3
}
    660e:	b005      	add	sp, #20
    6610:	bd30      	pop	{r4, r5, pc}
    6612:	bf00      	nop
    6614:	000063e5 	.word	0x000063e5
    6618:	0000636d 	.word	0x0000636d
    661c:	000063a5 	.word	0x000063a5
    6620:	00006389 	.word	0x00006389

00006624 <check_device_id>:


// ---------------------- Core Operations ----------------------

void check_device_id(uint8_t mram) {
    6624:	b513      	push	{r0, r1, r4, lr}
    uint8_t cmd = CMD_RDID;
    6626:	239f      	movs	r3, #159	@ 0x9f
    6628:	f88d 3003 	strb.w	r3, [sp, #3]
    uint8_t id[3] = {0};
    662c:	2300      	movs	r3, #0
    662e:	f8ad 3004 	strh.w	r3, [sp, #4]
    6632:	f88d 3006 	strb.w	r3, [sp, #6]
    mram_select(mram);
    6636:	4b0f      	ldr	r3, [pc, #60]	@ (6674 <check_device_id+0x50>)
    6638:	4798      	blx	r3
void check_device_id(uint8_t mram) {
    663a:	4604      	mov	r4, r0
    spi_write(&cmd, 1);
    663c:	4b0e      	ldr	r3, [pc, #56]	@ (6678 <check_device_id+0x54>)
    663e:	2101      	movs	r1, #1
    6640:	f10d 0003 	add.w	r0, sp, #3
    6644:	4798      	blx	r3
    spi_read(id, 3);
    6646:	4b0d      	ldr	r3, [pc, #52]	@ (667c <check_device_id+0x58>)
    6648:	a801      	add	r0, sp, #4
    664a:	2103      	movs	r1, #3
    664c:	4798      	blx	r3
    mram_deselect(mram);
    664e:	4b0c      	ldr	r3, [pc, #48]	@ (6680 <check_device_id+0x5c>)
    6650:	4620      	mov	r0, r4
    6652:	4798      	blx	r3

    if (id[0] != 0x6B || id[1] != 0xBB || id[2] != 0x14) {
    6654:	f89d 3004 	ldrb.w	r3, [sp, #4]
    6658:	2b6b      	cmp	r3, #107	@ 0x6b
    665a:	d107      	bne.n	666c <check_device_id+0x48>
    665c:	f89d 3005 	ldrb.w	r3, [sp, #5]
    6660:	2bbb      	cmp	r3, #187	@ 0xbb
    6662:	d103      	bne.n	666c <check_device_id+0x48>
    6664:	f89d 3006 	ldrb.w	r3, [sp, #6]
    6668:	2b14      	cmp	r3, #20
    666a:	d000      	beq.n	666e <check_device_id+0x4a>
    666c:	e7fe      	b.n	666c <check_device_id+0x48>
        // invalid device ID
        mram_fatal();
    }
}
    666e:	b002      	add	sp, #8
    6670:	bd10      	pop	{r4, pc}
    6672:	bf00      	nop
    6674:	0000636d 	.word	0x0000636d
    6678:	000063a5 	.word	0x000063a5
    667c:	000063c5 	.word	0x000063c5
    6680:	00006389 	.word	0x00006389

00006684 <disable_block_protection>:

void disable_block_protection(uint8_t mram) {
    6684:	b538      	push	{r3, r4, r5, lr}
    uint8_t status = read_status(mram);
    6686:	4d09      	ldr	r5, [pc, #36]	@ (66ac <disable_block_protection+0x28>)
void disable_block_protection(uint8_t mram) {
    6688:	4604      	mov	r4, r0
    uint8_t status = read_status(mram);
    668a:	47a8      	blx	r5

    if (status & 0x0C) {
    668c:	f010 0f0c 	tst.w	r0, #12
    6690:	d004      	beq.n	669c <disable_block_protection+0x18>
        // disable block protection
        write_status(mram, status & ~0x0C);
    6692:	f000 01f3 	and.w	r1, r0, #243	@ 0xf3
    6696:	4b06      	ldr	r3, [pc, #24]	@ (66b0 <disable_block_protection+0x2c>)
    6698:	4620      	mov	r0, r4
    669a:	4798      	blx	r3
    }

    status = read_status(mram);
    669c:	4620      	mov	r0, r4
    669e:	47a8      	blx	r5
    if ((status & 0x0C) != 0) {
    66a0:	f010 0f0c 	tst.w	r0, #12
    66a4:	d000      	beq.n	66a8 <disable_block_protection+0x24>
    66a6:	e7fe      	b.n	66a6 <disable_block_protection+0x22>
        // block protection not disabled
        mram_fatal();
    }
}
    66a8:	bd38      	pop	{r3, r4, r5, pc}
    66aa:	bf00      	nop
    66ac:	00006415 	.word	0x00006415
    66b0:	0000645d 	.word	0x0000645d

000066b4 <set_persistent_mode>:

void set_persistent_mode(uint8_t mram) {
    66b4:	b510      	push	{r4, lr}
    uint8_t reg_val = read_nonvol_reg(mram, PMM_REG);
    66b6:	4b0a      	ldr	r3, [pc, #40]	@ (66e0 <set_persistent_mode+0x2c>)
    66b8:	2108      	movs	r1, #8
void set_persistent_mode(uint8_t mram) {
    66ba:	4604      	mov	r4, r0
    uint8_t reg_val = read_nonvol_reg(mram, PMM_REG);
    66bc:	4798      	blx	r3

    if (!(reg_val & 0x03)) {
    66be:	0782      	lsls	r2, r0, #30
    66c0:	d106      	bne.n	66d0 <set_persistent_mode+0x1c>
        reg_val |= 0x03;
    66c2:	f040 0203 	orr.w	r2, r0, #3
        write_vol_reg(mram, PMM_REG, reg_val);
    66c6:	4b07      	ldr	r3, [pc, #28]	@ (66e4 <set_persistent_mode+0x30>)
    66c8:	b2d2      	uxtb	r2, r2
    66ca:	2108      	movs	r1, #8
    66cc:	4620      	mov	r0, r4
    66ce:	4798      	blx	r3
    }

    reg_val = read_vol_reg(mram, PMM_REG);
    66d0:	4b05      	ldr	r3, [pc, #20]	@ (66e8 <set_persistent_mode+0x34>)
    66d2:	2108      	movs	r1, #8
    66d4:	4620      	mov	r0, r4
    66d6:	4798      	blx	r3
    if (!(reg_val & 0x03)) {
    66d8:	0783      	lsls	r3, r0, #30
    66da:	d100      	bne.n	66de <set_persistent_mode+0x2a>
    66dc:	e7fe      	b.n	66dc <set_persistent_mode+0x28>
        // persistent mode not enabled
        mram_fatal();
    }
}
    66de:	bd10      	pop	{r4, pc}
    66e0:	00006535 	.word	0x00006535
    66e4:	000065d5 	.word	0x000065d5
    66e8:	00006585 	.word	0x00006585

000066ec <mram_read_bytes>:

#define PAGE_SIZE 256

// it assume the size is a multiple of PAGE_SIZE
void mram_read_bytes(uint32_t address, uint8_t *data, uint32_t size) {
    66ec:	b5f0      	push	{r4, r5, r6, r7, lr}
    uint32_t npages = size / PAGE_SIZE;

    uint8_t read_data[3][PAGE_SIZE];
    for (uint32_t page = 0; page < npages; page++) {
        for (uint8_t mram_idx = 1; mram_idx <= 3; mram_idx++) {
            read_bytes(mram_idx, page, read_data[mram_idx-1], PAGE_SIZE);
    66ee:	4f1b      	ldr	r7, [pc, #108]	@ (675c <mram_read_bytes+0x70>)
void mram_read_bytes(uint32_t address, uint8_t *data, uint32_t size) {
    66f0:	f5ad 7d41 	sub.w	sp, sp, #772	@ 0x304
    uint32_t npages = size / PAGE_SIZE;
    66f4:	0a16      	lsrs	r6, r2, #8
    for (uint32_t page = 0; page < npages; page++) {
    66f6:	460c      	mov	r4, r1
    66f8:	2500      	movs	r5, #0
    66fa:	42b5      	cmp	r5, r6
    66fc:	d102      	bne.n	6704 <mram_read_bytes+0x18>
        for (uint16_t read = 0; read < PAGE_SIZE; read++) {
            data[read + PAGE_SIZE*page] = (read_data[0][read] & read_data[1][read]) | (read_data[2][read] & read_data[1][read]) | (read_data[0][read] & read_data[2][read]);
        }
        
    }
}
    66fe:	f50d 7d41 	add.w	sp, sp, #772	@ 0x304
    6702:	bdf0      	pop	{r4, r5, r6, r7, pc}
            read_bytes(mram_idx, page, read_data[mram_idx-1], PAGE_SIZE);
    6704:	f44f 7380 	mov.w	r3, #256	@ 0x100
    6708:	466a      	mov	r2, sp
    670a:	4629      	mov	r1, r5
    670c:	2001      	movs	r0, #1
    670e:	47b8      	blx	r7
    6710:	f44f 7380 	mov.w	r3, #256	@ 0x100
    6714:	eb0d 0203 	add.w	r2, sp, r3
    6718:	4629      	mov	r1, r5
    671a:	2002      	movs	r0, #2
    671c:	47b8      	blx	r7
    671e:	f44f 7380 	mov.w	r3, #256	@ 0x100
    6722:	2003      	movs	r0, #3
    6724:	aa80      	add	r2, sp, #512	@ 0x200
    6726:	4629      	mov	r1, r5
    6728:	47b8      	blx	r7
        for (uint8_t mram_idx = 1; mram_idx <= 3; mram_idx++) {
    672a:	4668      	mov	r0, sp
            read_bytes(mram_idx, page, read_data[mram_idx-1], PAGE_SIZE);
    672c:	4623      	mov	r3, r4
    672e:	f504 7c80 	add.w	ip, r4, #256	@ 0x100
            data[read + PAGE_SIZE*page] = (read_data[0][read] & read_data[1][read]) | (read_data[2][read] & read_data[1][read]) | (read_data[0][read] & read_data[2][read]);
    6732:	4601      	mov	r1, r0
    6734:	f810 2b01 	ldrb.w	r2, [r0], #1
    6738:	f891 1100 	ldrb.w	r1, [r1, #256]	@ 0x100
    673c:	f890 41ff 	ldrb.w	r4, [r0, #511]	@ 0x1ff
    6740:	ea42 0e04 	orr.w	lr, r2, r4
    6744:	ea01 010e 	and.w	r1, r1, lr
    6748:	4022      	ands	r2, r4
    674a:	4311      	orrs	r1, r2
    674c:	f803 1b01 	strb.w	r1, [r3], #1
        for (uint16_t read = 0; read < PAGE_SIZE; read++) {
    6750:	4563      	cmp	r3, ip
    6752:	d1ee      	bne.n	6732 <mram_read_bytes+0x46>
    for (uint32_t page = 0; page < npages; page++) {
    6754:	3501      	adds	r5, #1
    6756:	461c      	mov	r4, r3
    6758:	e7cf      	b.n	66fa <mram_read_bytes+0xe>
    675a:	bf00      	nop
    675c:	00006499 	.word	0x00006499

00006760 <mram_write_bytes>:

void mram_write_bytes(uint32_t address, const uint8_t *data, uint32_t size) {
    6760:	e92d 41f0 	stmdb	sp!, {r4, r5, r6, r7, r8, lr}
    for (uint8_t mram = 1; mram <= 3; mram++) {
        write_bytes(mram, address, data, size);
    6764:	f8df 8020 	ldr.w	r8, [pc, #32]	@ 6788 <mram_write_bytes+0x28>
void mram_write_bytes(uint32_t address, const uint8_t *data, uint32_t size) {
    6768:	4605      	mov	r5, r0
    676a:	460e      	mov	r6, r1
    676c:	4617      	mov	r7, r2
    for (uint8_t mram = 1; mram <= 3; mram++) {
    676e:	2401      	movs	r4, #1
        write_bytes(mram, address, data, size);
    6770:	4620      	mov	r0, r4
    for (uint8_t mram = 1; mram <= 3; mram++) {
    6772:	3401      	adds	r4, #1
        write_bytes(mram, address, data, size);
    6774:	463b      	mov	r3, r7
    6776:	4632      	mov	r2, r6
    6778:	4629      	mov	r1, r5
    for (uint8_t mram = 1; mram <= 3; mram++) {
    677a:	b2e4      	uxtb	r4, r4
        write_bytes(mram, address, data, size);
    677c:	47c0      	blx	r8
    for (uint8_t mram = 1; mram <= 3; mram++) {
    677e:	2c04      	cmp	r4, #4
    6780:	d1f6      	bne.n	6770 <mram_write_bytes+0x10>
    }
}
    6782:	e8bd 81f0 	ldmia.w	sp!, {r4, r5, r6, r7, r8, pc}
    6786:	bf00      	nop
    6788:	000064e5 	.word	0x000064e5

0000678c <mram_init>:
    }
}

// ---------------------- Main ----------------------

void mram_init(void) {
    678c:	b5f8      	push	{r3, r4, r5, r6, r7, lr}
    atmel_start_init();
    678e:	4b0f      	ldr	r3, [pc, #60]	@ (67cc <mram_init+0x40>)
    gpio_set_pin_level(MRAM3_CS, true);

    delay_ms(50);

    for (uint8_t mram = 1; mram <= 3; mram++) {
        check_device_id(mram);
    6790:	4f0f      	ldr	r7, [pc, #60]	@ (67d0 <mram_init+0x44>)
        disable_block_protection(mram);
    6792:	4e10      	ldr	r6, [pc, #64]	@ (67d4 <mram_init+0x48>)
        set_persistent_mode(mram);
    6794:	4d10      	ldr	r5, [pc, #64]	@ (67d8 <mram_init+0x4c>)
    atmel_start_init();
    6796:	4798      	blx	r3
    spi_m_sync_enable(&SPI_MRAM);
    6798:	4810      	ldr	r0, [pc, #64]	@ (67dc <mram_init+0x50>)
    679a:	4b11      	ldr	r3, [pc, #68]	@ (67e0 <mram_init+0x54>)
    679c:	4798      	blx	r3
    679e:	4b11      	ldr	r3, [pc, #68]	@ (67e4 <mram_init+0x58>)
    67a0:	2210      	movs	r2, #16
    67a2:	f8c3 2118 	str.w	r2, [r3, #280]	@ 0x118
    delay_ms(50);
    67a6:	2032      	movs	r0, #50	@ 0x32
    67a8:	f8c3 2118 	str.w	r2, [r3, #280]	@ 0x118
    67ac:	f8c3 2118 	str.w	r2, [r3, #280]	@ 0x118
    67b0:	4b0d      	ldr	r3, [pc, #52]	@ (67e8 <mram_init+0x5c>)
    67b2:	4798      	blx	r3
    for (uint8_t mram = 1; mram <= 3; mram++) {
    67b4:	2401      	movs	r4, #1
        check_device_id(mram);
    67b6:	4620      	mov	r0, r4
    67b8:	47b8      	blx	r7
        disable_block_protection(mram);
    67ba:	4620      	mov	r0, r4
    67bc:	47b0      	blx	r6
        set_persistent_mode(mram);
    67be:	4620      	mov	r0, r4
    for (uint8_t mram = 1; mram <= 3; mram++) {
    67c0:	3401      	adds	r4, #1
    67c2:	b2e4      	uxtb	r4, r4
        set_persistent_mode(mram);
    67c4:	47a8      	blx	r5
    for (uint8_t mram = 1; mram <= 3; mram++) {
    67c6:	2c04      	cmp	r4, #4
    67c8:	d1f5      	bne.n	67b6 <mram_init+0x2a>
    // }

    // while (1) {
    //     delay_ms(1000);
    // }
}
    67ca:	bdf8      	pop	{r3, r4, r5, r6, r7, pc}
    67cc:	00006f75 	.word	0x00006f75
    67d0:	00006625 	.word	0x00006625
    67d4:	00006685 	.word	0x00006685
    67d8:	000066b5 	.word	0x000066b5
    67dc:	2003d034 	.word	0x2003d034
    67e0:	00006839 	.word	0x00006839
    67e4:	41008000 	.word	0x41008000
    67e8:	0000689d 	.word	0x0000689d

000067ec <_get_cycles_for_ms>:
{
	switch (power) {
	case 9:
		return (ms * (freq / 1000000) + 2) / 3 * 1000;
	case 8:
		return (ms * (freq / 100000) + 2) / 3 * 100;
    67ec:	2378      	movs	r3, #120	@ 0x78
    67ee:	4358      	muls	r0, r3
    67f0:	3002      	adds	r0, #2
    67f2:	2303      	movs	r3, #3
    67f4:	fbb0 f0f3 	udiv	r0, r0, r3
 * \brief Retrieve the amount of cycles to delay for the given amount of ms
 */
uint32_t _get_cycles_for_ms(const uint16_t ms)
{
	return _get_cycles_for_ms_internal(ms, CONF_CPU_FREQUENCY, CPU_FREQ_POWER);
}
    67f8:	2364      	movs	r3, #100	@ 0x64
    67fa:	4358      	muls	r0, r3
    67fc:	4770      	bx	lr
	...

00006800 <_delay_cycles>:
	__asm(".align 3 \n"
	      "__delay:\n"
	      "subs r1, r1, #1\n"
	      "bhi __delay\n");
#elif defined __GNUC__
	__asm(".syntax unified\n"
    6800:	3901      	subs	r1, #1
    6802:	d8fd      	bhi.n	6800 <_delay_cycles>
	__asm("__delay:\n"
	      "subs r1, r1, #1\n"
	      "bhi.n __delay\n");
#endif
#endif
}
    6804:	4770      	bx	lr
    6806:	bf00      	nop

00006808 <spi_m_sync_init>:
	ASSERT(spi);
	spi->func = (struct _spi_m_sync_hpl_interface *)func;
}

int32_t spi_m_sync_init(struct spi_m_sync_descriptor *spi, void *const hw)
{
    6808:	b510      	push	{r4, lr}
	int32_t rc = 0;
	ASSERT(spi && hw);
	spi->dev.prvt = (void *)hw;
	rc            = _spi_m_sync_init(&spi->dev, hw);
    680a:	4b08      	ldr	r3, [pc, #32]	@ (682c <spi_m_sync_init+0x24>)
{
    680c:	4604      	mov	r4, r0
	spi->dev.prvt = (void *)hw;
    680e:	f840 1f04 	str.w	r1, [r0, #4]!
	rc            = _spi_m_sync_init(&spi->dev, hw);
    6812:	4798      	blx	r3

	if (rc < 0) {
    6814:	2800      	cmp	r0, #0
    6816:	db07      	blt.n	6828 <spi_m_sync_init+0x20>
		return rc;
	}

	spi->flags    = SPI_DEACTIVATE_NEXT;
    6818:	f44f 4300 	mov.w	r3, #32768	@ 0x8000
    681c:	82a3      	strh	r3, [r4, #20]
	spi->io.read  = _spi_m_sync_io_read;
    681e:	4b04      	ldr	r3, [pc, #16]	@ (6830 <spi_m_sync_init+0x28>)
    6820:	6123      	str	r3, [r4, #16]
	spi->io.write = _spi_m_sync_io_write;
    6822:	4b04      	ldr	r3, [pc, #16]	@ (6834 <spi_m_sync_init+0x2c>)
    6824:	60e3      	str	r3, [r4, #12]

	return ERR_NONE;
    6826:	2000      	movs	r0, #0
}
    6828:	bd10      	pop	{r4, pc}
    682a:	bf00      	nop
    682c:	00006d5d 	.word	0x00006d5d
    6830:	00006881 	.word	0x00006881
    6834:	00006865 	.word	0x00006865

00006838 <spi_m_sync_enable>:
}

void spi_m_sync_enable(struct spi_m_sync_descriptor *spi)
{
	ASSERT(spi);
	_spi_m_sync_enable(&spi->dev);
    6838:	4b01      	ldr	r3, [pc, #4]	@ (6840 <spi_m_sync_enable+0x8>)
    683a:	3004      	adds	r0, #4
    683c:	4718      	bx	r3
    683e:	bf00      	nop
    6840:	00006ddd 	.word	0x00006ddd

00006844 <spi_m_sync_transfer>:

	return spi_m_sync_transfer(spi, &xfer);
}

int32_t spi_m_sync_transfer(struct spi_m_sync_descriptor *spi, const struct spi_xfer *p_xfer)
{
    6844:	b51f      	push	{r0, r1, r2, r3, r4, lr}
	struct spi_msg msg;

	ASSERT(spi && p_xfer);

	msg.txbuf = p_xfer->txbuf;
    6846:	680b      	ldr	r3, [r1, #0]
    6848:	9301      	str	r3, [sp, #4]
	msg.rxbuf = p_xfer->rxbuf;
    684a:	684b      	ldr	r3, [r1, #4]
    684c:	9302      	str	r3, [sp, #8]
	msg.size  = p_xfer->size;
    684e:	688b      	ldr	r3, [r1, #8]
    6850:	9303      	str	r3, [sp, #12]
	return _spi_m_sync_trans(&spi->dev, &msg);
    6852:	a901      	add	r1, sp, #4
    6854:	4b02      	ldr	r3, [pc, #8]	@ (6860 <spi_m_sync_transfer+0x1c>)
    6856:	3004      	adds	r0, #4
    6858:	4798      	blx	r3
}
    685a:	b005      	add	sp, #20
    685c:	f85d fb04 	ldr.w	pc, [sp], #4
    6860:	00006de9 	.word	0x00006de9

00006864 <_spi_m_sync_io_write>:
{
    6864:	b51f      	push	{r0, r1, r2, r3, r4, lr}
	xfer.rxbuf = 0;
    6866:	2300      	movs	r3, #0
	xfer.txbuf = (uint8_t *)buf;
    6868:	e9cd 1301 	strd	r1, r3, [sp, #4]
	return spi_m_sync_transfer(spi, &xfer);
    686c:	380c      	subs	r0, #12
    686e:	4b03      	ldr	r3, [pc, #12]	@ (687c <_spi_m_sync_io_write+0x18>)
	xfer.size  = length;
    6870:	9203      	str	r2, [sp, #12]
	return spi_m_sync_transfer(spi, &xfer);
    6872:	a901      	add	r1, sp, #4
    6874:	4798      	blx	r3
}
    6876:	b005      	add	sp, #20
    6878:	f85d fb04 	ldr.w	pc, [sp], #4
    687c:	00006845 	.word	0x00006845

00006880 <_spi_m_sync_io_read>:
{
    6880:	b51f      	push	{r0, r1, r2, r3, r4, lr}
	xfer.txbuf = 0;
    6882:	2300      	movs	r3, #0
	xfer.rxbuf = buf;
    6884:	9102      	str	r1, [sp, #8]
	xfer.txbuf = 0;
    6886:	9301      	str	r3, [sp, #4]
	return spi_m_sync_transfer(spi, &xfer);
    6888:	a901      	add	r1, sp, #4
    688a:	4b03      	ldr	r3, [pc, #12]	@ (6898 <_spi_m_sync_io_read+0x18>)
	xfer.size  = length;
    688c:	9203      	str	r2, [sp, #12]
	return spi_m_sync_transfer(spi, &xfer);
    688e:	380c      	subs	r0, #12
    6890:	4798      	blx	r3
}
    6892:	b005      	add	sp, #20
    6894:	f85d fb04 	ldr.w	pc, [sp], #4
    6898:	00006845 	.word	0x00006845

0000689c <delay_ms>:
/**
 * \brief Perform delay in ms
 */
void delay_ms(const uint16_t ms)
{
	_delay_cycles(hardware, _get_cycles_for_ms(ms));
    689c:	4b05      	ldr	r3, [pc, #20]	@ (68b4 <delay_ms+0x18>)
{
    689e:	b510      	push	{r4, lr}
	_delay_cycles(hardware, _get_cycles_for_ms(ms));
    68a0:	681c      	ldr	r4, [r3, #0]
    68a2:	4b05      	ldr	r3, [pc, #20]	@ (68b8 <delay_ms+0x1c>)
    68a4:	4798      	blx	r3
    68a6:	4b05      	ldr	r3, [pc, #20]	@ (68bc <delay_ms+0x20>)
    68a8:	4601      	mov	r1, r0
    68aa:	4620      	mov	r0, r4
}
    68ac:	e8bd 4010 	ldmia.w	sp!, {r4, lr}
	_delay_cycles(hardware, _get_cycles_for_ms(ms));
    68b0:	4718      	bx	r3
    68b2:	bf00      	nop
    68b4:	2003d020 	.word	0x2003d020
    68b8:	000067ed 	.word	0x000067ed
    68bc:	00006801 	.word	0x00006801

000068c0 <_init_chip>:
}

static inline void hri_nvmctrl_set_CTRLA_RWS_bf(const void *const hw, hri_nvmctrl_ctrla_reg_t mask)
{
	NVMCTRL_CRITICAL_SECTION_ENTER();
	((Nvmctrl *)hw)->CTRLA.reg |= NVMCTRL_CTRLA_RWS(mask);
    68c0:	4a0b      	ldr	r2, [pc, #44]	@ (68f0 <_init_chip+0x30>)
    68c2:	8813      	ldrh	r3, [r2, #0]
    68c4:	b29b      	uxth	r3, r3

/**
 * \brief Initialize the hardware abstraction layer
 */
void _init_chip(void)
{
    68c6:	b510      	push	{r4, lr}
    68c8:	8013      	strh	r3, [r2, #0]
	hri_nvmctrl_set_CTRLA_RWS_bf(NVMCTRL, CONF_NVM_WAIT_STATE);

	_osc32kctrl_init_sources();
    68ca:	4b0a      	ldr	r3, [pc, #40]	@ (68f4 <_init_chip+0x34>)
	_oscctrl_init_sources();
	_mclk_init();
#if _GCLK_INIT_1ST
	_gclk_init_generators_by_fref(_GCLK_INIT_1ST);
    68cc:	4c0a      	ldr	r4, [pc, #40]	@ (68f8 <_init_chip+0x38>)
	_osc32kctrl_init_sources();
    68ce:	4798      	blx	r3
	_oscctrl_init_sources();
    68d0:	4b0a      	ldr	r3, [pc, #40]	@ (68fc <_init_chip+0x3c>)
    68d2:	4798      	blx	r3
	_mclk_init();
    68d4:	4b0a      	ldr	r3, [pc, #40]	@ (6900 <_init_chip+0x40>)
    68d6:	4798      	blx	r3
	_gclk_init_generators_by_fref(_GCLK_INIT_1ST);
    68d8:	2008      	movs	r0, #8
    68da:	47a0      	blx	r4
#endif
	_oscctrl_init_referenced_generators();
    68dc:	4b09      	ldr	r3, [pc, #36]	@ (6904 <_init_chip+0x44>)
    68de:	4798      	blx	r3
	_gclk_init_generators_by_fref(_GCLK_INIT_LAST);
    68e0:	f640 70f7 	movw	r0, #4087	@ 0xff7
    68e4:	47a0      	blx	r4
#endif

#if CONF_CMCC_ENABLE
	cache_init();
#endif
}
    68e6:	e8bd 4010 	ldmia.w	sp!, {r4, lr}
	cache_init();
    68ea:	4b07      	ldr	r3, [pc, #28]	@ (6908 <_init_chip+0x48>)
    68ec:	4718      	bx	r3
    68ee:	bf00      	nop
    68f0:	41004000 	.word	0x41004000
    68f4:	00006a91 	.word	0x00006a91
    68f8:	00006921 	.word	0x00006921
    68fc:	00006989 	.word	0x00006989
    6900:	00006a4d 	.word	0x00006a4d
    6904:	0000698d 	.word	0x0000698d
    6908:	00006e95 	.word	0x00006e95

0000690c <hri_gclk_wait_for_sync.constprop.0>:
typedef uint32_t hri_gclk_syncbusy_reg_t;
typedef uint8_t  hri_gclk_ctrla_reg_t;

static inline void hri_gclk_wait_for_sync(const void *const hw, hri_gclk_syncbusy_reg_t reg)
{
	while (((Gclk *)hw)->SYNCBUSY.reg & reg) {
    690c:	4903      	ldr	r1, [pc, #12]	@ (691c <hri_gclk_wait_for_sync.constprop.0+0x10>)
    690e:	f643 73fd 	movw	r3, #16381	@ 0x3ffd
    6912:	684a      	ldr	r2, [r1, #4]
    6914:	421a      	tst	r2, r3
    6916:	d1fc      	bne.n	6912 <hri_gclk_wait_for_sync.constprop.0+0x6>
	};
}
    6918:	4770      	bx	lr
    691a:	bf00      	nop
    691c:	40001c00 	.word	0x40001c00

00006920 <_gclk_init_generators_by_fref>:

void _gclk_init_generators_by_fref(uint32_t bm)
{

#if CONF_GCLK_GENERATOR_0_CONFIG == 1
	if (bm & (1ul << 0)) {
    6920:	07c3      	lsls	r3, r0, #31
{
    6922:	b510      	push	{r4, lr}
	if (bm & (1ul << 0)) {
    6924:	d504      	bpl.n	6930 <_gclk_init_generators_by_fref+0x10>
}

static inline void hri_gclk_write_GENCTRL_reg(const void *const hw, uint8_t index, hri_gclk_genctrl_reg_t data)
{
	GCLK_CRITICAL_SECTION_ENTER();
	((Gclk *)hw)->GENCTRL[index].reg = data;
    6926:	4b12      	ldr	r3, [pc, #72]	@ (6970 <_gclk_init_generators_by_fref+0x50>)
    6928:	4a12      	ldr	r2, [pc, #72]	@ (6974 <_gclk_init_generators_by_fref+0x54>)
    692a:	621a      	str	r2, [r3, #32]
	hri_gclk_wait_for_sync(hw, GCLK_SYNCBUSY_MASK);
    692c:	4b12      	ldr	r3, [pc, #72]	@ (6978 <_gclk_init_generators_by_fref+0x58>)
    692e:	4798      	blx	r3
		        | (CONF_GCLK_GENERATOR_0_CONFIG << GCLK_GENCTRL_GENEN_Pos) | CONF_GCLK_GEN_0_SOURCE);
	}
#endif

#if CONF_GCLK_GENERATOR_1_CONFIG == 1
	if (bm & (1ul << 1)) {
    6930:	0784      	lsls	r4, r0, #30
    6932:	d504      	bpl.n	693e <_gclk_init_generators_by_fref+0x1e>
	((Gclk *)hw)->GENCTRL[index].reg = data;
    6934:	4b0e      	ldr	r3, [pc, #56]	@ (6970 <_gclk_init_generators_by_fref+0x50>)
    6936:	4a11      	ldr	r2, [pc, #68]	@ (697c <_gclk_init_generators_by_fref+0x5c>)
    6938:	625a      	str	r2, [r3, #36]	@ 0x24
	hri_gclk_wait_for_sync(hw, GCLK_SYNCBUSY_MASK);
    693a:	4b0f      	ldr	r3, [pc, #60]	@ (6978 <_gclk_init_generators_by_fref+0x58>)
    693c:	4798      	blx	r3
		        | (CONF_GCLK_GENERATOR_1_CONFIG << GCLK_GENCTRL_GENEN_Pos) | CONF_GCLK_GEN_1_SOURCE);
	}
#endif

#if CONF_GCLK_GENERATOR_2_CONFIG == 1
	if (bm & (1ul << 2)) {
    693e:	0741      	lsls	r1, r0, #29
    6940:	d504      	bpl.n	694c <_gclk_init_generators_by_fref+0x2c>
	((Gclk *)hw)->GENCTRL[index].reg = data;
    6942:	4b0b      	ldr	r3, [pc, #44]	@ (6970 <_gclk_init_generators_by_fref+0x50>)
    6944:	4a0e      	ldr	r2, [pc, #56]	@ (6980 <_gclk_init_generators_by_fref+0x60>)
    6946:	629a      	str	r2, [r3, #40]	@ 0x28
	hri_gclk_wait_for_sync(hw, GCLK_SYNCBUSY_MASK);
    6948:	4b0b      	ldr	r3, [pc, #44]	@ (6978 <_gclk_init_generators_by_fref+0x58>)
    694a:	4798      	blx	r3
		        | (CONF_GCLK_GENERATOR_2_CONFIG << GCLK_GENCTRL_GENEN_Pos) | CONF_GCLK_GEN_2_SOURCE);
	}
#endif

#if CONF_GCLK_GENERATOR_3_CONFIG == 1
	if (bm & (1ul << 3)) {
    694c:	0702      	lsls	r2, r0, #28
    694e:	d504      	bpl.n	695a <_gclk_init_generators_by_fref+0x3a>
	((Gclk *)hw)->GENCTRL[index].reg = data;
    6950:	4b07      	ldr	r3, [pc, #28]	@ (6970 <_gclk_init_generators_by_fref+0x50>)
    6952:	4a0c      	ldr	r2, [pc, #48]	@ (6984 <_gclk_init_generators_by_fref+0x64>)
    6954:	62da      	str	r2, [r3, #44]	@ 0x2c
	hri_gclk_wait_for_sync(hw, GCLK_SYNCBUSY_MASK);
    6956:	4b08      	ldr	r3, [pc, #32]	@ (6978 <_gclk_init_generators_by_fref+0x58>)
    6958:	4798      	blx	r3
		        | (CONF_GCLK_GENERATOR_3_CONFIG << GCLK_GENCTRL_GENEN_Pos) | CONF_GCLK_GEN_3_SOURCE);
	}
#endif

#if CONF_GCLK_GENERATOR_4_CONFIG == 1
	if (bm & (1ul << 4)) {
    695a:	06c3      	lsls	r3, r0, #27
    695c:	d506      	bpl.n	696c <_gclk_init_generators_by_fref+0x4c>
	((Gclk *)hw)->GENCTRL[index].reg = data;
    695e:	4b04      	ldr	r3, [pc, #16]	@ (6970 <_gclk_init_generators_by_fref+0x50>)
    6960:	4a08      	ldr	r2, [pc, #32]	@ (6984 <_gclk_init_generators_by_fref+0x64>)
    6962:	631a      	str	r2, [r3, #48]	@ 0x30
		        | (CONF_GCLK_GEN_11_DIVSEL << GCLK_GENCTRL_DIVSEL_Pos) | (CONF_GCLK_GEN_11_OE << GCLK_GENCTRL_OE_Pos)
		        | (CONF_GCLK_GEN_11_OOV << GCLK_GENCTRL_OOV_Pos) | (CONF_GCLK_GEN_11_IDC << GCLK_GENCTRL_IDC_Pos)
		        | (CONF_GCLK_GENERATOR_11_CONFIG << GCLK_GENCTRL_GENEN_Pos) | CONF_GCLK_GEN_11_SOURCE);
	}
#endif
}
    6964:	e8bd 4010 	ldmia.w	sp!, {r4, lr}
	hri_gclk_wait_for_sync(hw, GCLK_SYNCBUSY_MASK);
    6968:	4b03      	ldr	r3, [pc, #12]	@ (6978 <_gclk_init_generators_by_fref+0x58>)
    696a:	4718      	bx	r3
    696c:	bd10      	pop	{r4, pc}
    696e:	bf00      	nop
    6970:	40001c00 	.word	0x40001c00
    6974:	00040106 	.word	0x00040106
    6978:	0000690d 	.word	0x0000690d
    697c:	00082106 	.word	0x00082106
    6980:	00011106 	.word	0x00011106
    6984:	00010104 	.word	0x00010104

00006988 <_oscctrl_init_sources>:
	hri_oscctrl_set_XOSCCTRL_ONDEMAND_bit(hw, 1);
#endif
#endif

	(void)hw;
}
    6988:	4770      	bx	lr
	...

0000698c <_oscctrl_init_referenced_generators>:
	tmp = ((Gclk *)hw)->GENCTRL[index].reg;
    698c:	492c      	ldr	r1, [pc, #176]	@ (6a40 <_oscctrl_init_referenced_generators+0xb4>)
    698e:	6a0b      	ldr	r3, [r1, #32]
	tmp &= ~GCLK_GENCTRL_SRC_Msk;
    6990:	f023 030f 	bic.w	r3, r3, #15
	tmp |= GCLK_GENCTRL_SRC(data);
    6994:	f043 0304 	orr.w	r3, r3, #4
	((Gclk *)hw)->GENCTRL[index].reg = tmp;
    6998:	620b      	str	r3, [r1, #32]
	while (((Gclk *)hw)->SYNCBUSY.reg & reg) {
    699a:	f643 73fd 	movw	r3, #16381	@ 0x3ffd
    699e:	684a      	ldr	r2, [r1, #4]
    69a0:	421a      	tst	r2, r3
    69a2:	d1fc      	bne.n	699e <_oscctrl_init_referenced_generators+0x12>
	return (((Gclk *)hw)->SYNCBUSY.reg & GCLK_SYNCBUSY_GENCTRL0) >> GCLK_SYNCBUSY_GENCTRL0_Pos;
    69a4:	684a      	ldr	r2, [r1, #4]
{
	void *hw = (void *)OSCCTRL;

#if CONF_DFLL_CONFIG == 1
	hri_gclk_write_GENCTRL_SRC_bf(GCLK, 0, GCLK_GENCTRL_SRC_OSCULP32K);
	while (hri_gclk_get_SYNCBUSY_GENCTRL0_bit(GCLK))
    69a6:	f012 0204 	ands.w	r2, r2, #4
    69aa:	d1fb      	bne.n	69a4 <_oscctrl_init_referenced_generators+0x18>
}

static inline void hri_oscctrl_write_DFLLCTRLA_reg(const void *const hw, hri_oscctrl_dfllctrla_reg_t data)
{
	OSCCTRL_CRITICAL_SECTION_ENTER();
	((Oscctrl *)hw)->DFLLCTRLA.reg = data;
    69ac:	4b25      	ldr	r3, [pc, #148]	@ (6a44 <_oscctrl_init_referenced_generators+0xb8>)
    69ae:	771a      	strb	r2, [r3, #28]
}

static inline void hri_oscctrl_write_DFLLMUL_reg(const void *const hw, hri_oscctrl_dfllmul_reg_t data)
{
	OSCCTRL_CRITICAL_SECTION_ENTER();
	((Oscctrl *)hw)->DFLLMUL.reg = data;
    69b0:	4a25      	ldr	r2, [pc, #148]	@ (6a48 <_oscctrl_init_referenced_generators+0xbc>)
    69b2:	629a      	str	r2, [r3, #40]	@ 0x28
}

static inline bool hri_oscctrl_get_DFLLSYNC_DFLLMUL_bit(const void *const hw)
{
	uint8_t tmp;
	tmp = ((Oscctrl *)hw)->DFLLSYNC.reg;
    69b4:	f893 202c 	ldrb.w	r2, [r3, #44]	@ 0x2c
#endif

	hri_oscctrl_write_DFLLMUL_reg(hw,
	                              OSCCTRL_DFLLMUL_CSTEP(CONF_DFLL_CSTEP) | OSCCTRL_DFLLMUL_FSTEP(CONF_DFLL_FSTEP)
	                                  | OSCCTRL_DFLLMUL_MUL(CONF_DFLL_MUL));
	while (hri_oscctrl_get_DFLLSYNC_DFLLMUL_bit(hw))
    69b8:	f3c2 1100 	ubfx	r1, r2, #4, #1
    69bc:	06d2      	lsls	r2, r2, #27
    69be:	d4f9      	bmi.n	69b4 <_oscctrl_init_referenced_generators+0x28>
	((Oscctrl *)hw)->DFLLCTRLB.reg = data;
    69c0:	f883 1020 	strb.w	r1, [r3, #32]
	tmp = ((Oscctrl *)hw)->DFLLSYNC.reg;
    69c4:	4b1f      	ldr	r3, [pc, #124]	@ (6a44 <_oscctrl_init_referenced_generators+0xb8>)
    69c6:	f893 202c 	ldrb.w	r2, [r3, #44]	@ 0x2c
		;

	hri_oscctrl_write_DFLLCTRLB_reg(hw, 0);
	while (hri_oscctrl_get_DFLLSYNC_DFLLCTRLB_bit(hw))
    69ca:	0750      	lsls	r0, r2, #29
    69cc:	d4fb      	bmi.n	69c6 <_oscctrl_init_referenced_generators+0x3a>
	((Oscctrl *)hw)->DFLLCTRLA.reg = data;
    69ce:	2202      	movs	r2, #2
    69d0:	771a      	strb	r2, [r3, #28]
	tmp = ((Oscctrl *)hw)->DFLLSYNC.reg;
    69d2:	4b1c      	ldr	r3, [pc, #112]	@ (6a44 <_oscctrl_init_referenced_generators+0xb8>)
    69d4:	f893 202c 	ldrb.w	r2, [r3, #44]	@ 0x2c
		;

	tmp = (CONF_DFLL_RUNSTDBY << OSCCTRL_DFLLCTRLA_RUNSTDBY_Pos) | OSCCTRL_DFLLCTRLA_ENABLE;
	hri_oscctrl_write_DFLLCTRLA_reg(hw, tmp);
	while (hri_oscctrl_get_DFLLSYNC_ENABLE_bit(hw))
    69d8:	0791      	lsls	r1, r2, #30
    69da:	d4fb      	bmi.n	69d4 <_oscctrl_init_referenced_generators+0x48>
	return ((Oscctrl *)hw)->DFLLVAL.reg;
    69dc:	6a5a      	ldr	r2, [r3, #36]	@ 0x24
	((Oscctrl *)hw)->DFLLVAL.reg = data;
    69de:	625a      	str	r2, [r3, #36]	@ 0x24
	tmp = ((Oscctrl *)hw)->DFLLSYNC.reg;
    69e0:	4b18      	ldr	r3, [pc, #96]	@ (6a44 <_oscctrl_init_referenced_generators+0xb8>)
    69e2:	f893 202c 	ldrb.w	r2, [r3, #44]	@ 0x2c

#if CONF_DFLL_OVERWRITE_CALIBRATION == 1
	hri_oscctrl_write_DFLLVAL_reg(hw, OSCCTRL_DFLLVAL_COARSE(CONF_DFLL_COARSE) | OSCCTRL_DFLLVAL_FINE(CONF_DFLL_FINE));
#endif
	hri_oscctrl_write_DFLLVAL_reg(hw, hri_oscctrl_read_DFLLVAL_reg(hw));
	while (hri_oscctrl_get_DFLLSYNC_DFLLVAL_bit(hw))
    69e6:	0712      	lsls	r2, r2, #28
    69e8:	d4fb      	bmi.n	69e2 <_oscctrl_init_referenced_generators+0x56>
	((Oscctrl *)hw)->DFLLCTRLB.reg = data;
    69ea:	2280      	movs	r2, #128	@ 0x80
    69ec:	f883 2020 	strb.w	r2, [r3, #32]
	tmp = ((Oscctrl *)hw)->DFLLSYNC.reg;
    69f0:	4b14      	ldr	r3, [pc, #80]	@ (6a44 <_oscctrl_init_referenced_generators+0xb8>)
    69f2:	f893 202c 	ldrb.w	r2, [r3, #44]	@ 0x2c
	tmp = (CONF_DFLL_WAITLOCK << OSCCTRL_DFLLCTRLB_WAITLOCK_Pos) | (CONF_DFLL_BPLCKC << OSCCTRL_DFLLCTRLB_BPLCKC_Pos)
	      | (CONF_DFLL_QLDIS << OSCCTRL_DFLLCTRLB_QLDIS_Pos) | (CONF_DFLL_CCDIS << OSCCTRL_DFLLCTRLB_CCDIS_Pos)
	      | (CONF_DFLL_USBCRM << OSCCTRL_DFLLCTRLB_USBCRM_Pos) | (CONF_DFLL_LLAW << OSCCTRL_DFLLCTRLB_LLAW_Pos)
	      | (CONF_DFLL_STABLE << OSCCTRL_DFLLCTRLB_STABLE_Pos) | (CONF_DFLL_MODE << OSCCTRL_DFLLCTRLB_MODE_Pos) | 0;
	hri_oscctrl_write_DFLLCTRLB_reg(hw, tmp);
	while (hri_oscctrl_get_DFLLSYNC_DFLLCTRLB_bit(hw))
    69f6:	0750      	lsls	r0, r2, #29
    69f8:	d4fb      	bmi.n	69f2 <_oscctrl_init_referenced_generators+0x66>
	tmp = ((Oscctrl *)hw)->DFLLCTRLB.reg;
    69fa:	f893 2020 	ldrb.w	r2, [r3, #32]
	                                (CONF_FDPLL1_RUNSTDBY << OSCCTRL_DPLLCTRLA_RUNSTDBY_Pos)
	                                    | (CONF_FDPLL1_ENABLE << OSCCTRL_DPLLCTRLA_ENABLE_Pos));
#endif

#if CONF_DFLL_CONFIG == 1
	if (hri_oscctrl_get_DFLLCTRLB_MODE_bit(hw)) {
    69fe:	07d1      	lsls	r1, r2, #31
    6a00:	d519      	bpl.n	6a36 <_oscctrl_init_referenced_generators+0xaa>
	tmp = ((Oscctrl *)hw)->STATUS.reg;
    6a02:	691a      	ldr	r2, [r3, #16]
	tmp &= mask;
    6a04:	f402 6210 	and.w	r2, r2, #2304	@ 0x900
		hri_oscctrl_status_reg_t status_mask = OSCCTRL_STATUS_DFLLRDY | OSCCTRL_STATUS_DFLLLCKC;

		while (hri_oscctrl_get_STATUS_reg(hw, status_mask) != status_mask)
    6a08:	f5b2 6f10 	cmp.w	r2, #2304	@ 0x900
    6a0c:	d1f9      	bne.n	6a02 <_oscctrl_init_referenced_generators+0x76>
	return ((Gclk *)hw)->SYNCBUSY.reg;
    6a0e:	4a0c      	ldr	r2, [pc, #48]	@ (6a40 <_oscctrl_init_referenced_generators+0xb4>)
    6a10:	6853      	ldr	r3, [r2, #4]
	hri_oscctrl_set_DPLLCTRLA_ONDEMAND_bit(hw, 1);
#endif
#endif

#if CONF_DFLL_CONFIG == 1
	while (hri_gclk_read_SYNCBUSY_reg(GCLK))
    6a12:	2b00      	cmp	r3, #0
    6a14:	d1fc      	bne.n	6a10 <_oscctrl_init_referenced_generators+0x84>
	tmp = ((Gclk *)hw)->GENCTRL[index].reg;
    6a16:	6a13      	ldr	r3, [r2, #32]
	tmp &= ~GCLK_GENCTRL_SRC_Msk;
    6a18:	f023 030f 	bic.w	r3, r3, #15
	tmp |= GCLK_GENCTRL_SRC(data);
    6a1c:	f043 0306 	orr.w	r3, r3, #6
	((Gclk *)hw)->GENCTRL[index].reg = tmp;
    6a20:	6213      	str	r3, [r2, #32]
	while (((Gclk *)hw)->SYNCBUSY.reg & reg) {
    6a22:	f643 73fd 	movw	r3, #16381	@ 0x3ffd
    6a26:	6851      	ldr	r1, [r2, #4]
    6a28:	4219      	tst	r1, r3
    6a2a:	d1fc      	bne.n	6a26 <_oscctrl_init_referenced_generators+0x9a>
	return (((Gclk *)hw)->SYNCBUSY.reg & GCLK_SYNCBUSY_GENCTRL0) >> GCLK_SYNCBUSY_GENCTRL0_Pos;
    6a2c:	4a04      	ldr	r2, [pc, #16]	@ (6a40 <_oscctrl_init_referenced_generators+0xb4>)
    6a2e:	6853      	ldr	r3, [r2, #4]
		;
	hri_gclk_write_GENCTRL_SRC_bf(GCLK, 0, CONF_GCLK_GEN_0_SOURCE);
	while (hri_gclk_get_SYNCBUSY_GENCTRL0_bit(GCLK))
    6a30:	075b      	lsls	r3, r3, #29
    6a32:	d4fc      	bmi.n	6a2e <_oscctrl_init_referenced_generators+0xa2>
		;
#endif
	(void)hw;
}
    6a34:	4770      	bx	lr
	return (((Oscctrl *)hw)->STATUS.reg & OSCCTRL_STATUS_DFLLRDY) >> OSCCTRL_STATUS_DFLLRDY_Pos;
    6a36:	691a      	ldr	r2, [r3, #16]
		while (!hri_oscctrl_get_STATUS_DFLLRDY_bit(hw))
    6a38:	05d2      	lsls	r2, r2, #23
    6a3a:	d5fc      	bpl.n	6a36 <_oscctrl_init_referenced_generators+0xaa>
    6a3c:	e7e7      	b.n	6a0e <_oscctrl_init_referenced_generators+0x82>
    6a3e:	bf00      	nop
    6a40:	40001c00 	.word	0x40001c00
    6a44:	40001000 	.word	0x40001000
    6a48:	04010000 	.word	0x04010000

00006a4c <_mclk_init>:
}

static inline void hri_mclk_write_CPUDIV_reg(const void *const hw, hri_mclk_cpudiv_reg_t data)
{
	MCLK_CRITICAL_SECTION_ENTER();
	((Mclk *)hw)->CPUDIV.reg = data;
    6a4c:	4b01      	ldr	r3, [pc, #4]	@ (6a54 <_mclk_init+0x8>)
    6a4e:	2201      	movs	r2, #1
    6a50:	715a      	strb	r2, [r3, #5]
 */
void _mclk_init(void)
{
	void *hw = (void *)MCLK;
	hri_mclk_write_CPUDIV_reg(hw, MCLK_CPUDIV_DIV(CONF_MCLK_CPUDIV));
}
    6a52:	4770      	bx	lr
    6a54:	40000800 	.word	0x40000800

00006a58 <RAMECC_Handler>:
	return tmp;
}

static inline hri_ramecc_intflag_reg_t hri_ramecc_read_INTFLAG_reg(const void *const hw)
{
	return ((Ramecc *)hw)->INTFLAG.reg;
    6a58:	4a0b      	ldr	r2, [pc, #44]	@ (6a88 <RAMECC_Handler+0x30>)
    6a5a:	7893      	ldrb	r3, [r2, #2]

/**
 * \internal RAMECC interrupt handler
 */
void RAMECC_Handler(void)
{
    6a5c:	b082      	sub	sp, #8
    6a5e:	b2db      	uxtb	r3, r3
	struct _ramecc_device *dev      = (struct _ramecc_device *)&device;
	volatile uint32_t      int_mask = hri_ramecc_read_INTFLAG_reg(RAMECC);
    6a60:	9301      	str	r3, [sp, #4]

	if (int_mask & RAMECC_INTFLAG_DUALE && dev->ramecc_cb.dual_bit_err) {
    6a62:	9b01      	ldr	r3, [sp, #4]
    6a64:	0799      	lsls	r1, r3, #30
    6a66:	d505      	bpl.n	6a74 <RAMECC_Handler+0x1c>
    6a68:	4b08      	ldr	r3, [pc, #32]	@ (6a8c <RAMECC_Handler+0x34>)
    6a6a:	681b      	ldr	r3, [r3, #0]
    6a6c:	b113      	cbz	r3, 6a74 <RAMECC_Handler+0x1c>
	return tmp;
}

static inline hri_ramecc_erraddr_reg_t hri_ramecc_read_ERRADDR_reg(const void *const hw)
{
	return ((Ramecc *)hw)->ERRADDR.reg;
    6a6e:	6850      	ldr	r0, [r2, #4]
	} else if (int_mask & RAMECC_INTFLAG_SINGLEE && dev->ramecc_cb.single_bit_err) {
		dev->ramecc_cb.single_bit_err((uint32_t)hri_ramecc_read_ERRADDR_reg(RAMECC));
	} else {
		return;
	}
}
    6a70:	b002      	add	sp, #8
		dev->ramecc_cb.single_bit_err((uint32_t)hri_ramecc_read_ERRADDR_reg(RAMECC));
    6a72:	4718      	bx	r3
	} else if (int_mask & RAMECC_INTFLAG_SINGLEE && dev->ramecc_cb.single_bit_err) {
    6a74:	9b01      	ldr	r3, [sp, #4]
    6a76:	07db      	lsls	r3, r3, #31
    6a78:	d504      	bpl.n	6a84 <RAMECC_Handler+0x2c>
    6a7a:	4b04      	ldr	r3, [pc, #16]	@ (6a8c <RAMECC_Handler+0x34>)
    6a7c:	685b      	ldr	r3, [r3, #4]
    6a7e:	b10b      	cbz	r3, 6a84 <RAMECC_Handler+0x2c>
    6a80:	4a01      	ldr	r2, [pc, #4]	@ (6a88 <RAMECC_Handler+0x30>)
    6a82:	e7f4      	b.n	6a6e <RAMECC_Handler+0x16>
}
    6a84:	b002      	add	sp, #8
    6a86:	4770      	bx	lr
    6a88:	41020000 	.word	0x41020000
    6a8c:	2003d024 	.word	0x2003d024

00006a90 <_osc32kctrl_init_sources>:
}

static inline hri_osc32kctrl_osculp32k_reg_t hri_osc32kctrl_read_OSCULP32K_CALIB_bf(const void *const hw)
{
	uint32_t tmp;
	tmp = ((Osc32kctrl *)hw)->OSCULP32K.reg;
    6a90:	4b03      	ldr	r3, [pc, #12]	@ (6aa0 <_osc32kctrl_init_sources+0x10>)
    6a92:	69da      	ldr	r2, [r3, #28]
	calib = hri_osc32kctrl_read_OSCULP32K_CALIB_bf(hw);
	hri_osc32kctrl_write_OSCULP32K_reg(hw,
#if CONF_OSCULP32K_CALIB_ENABLE == 1
	                                   OSC32KCTRL_OSCULP32K_CALIB(CONF_OSCULP32K_CALIB)
#else
	                                   OSC32KCTRL_OSCULP32K_CALIB(calib)
    6a94:	f402 527c 	and.w	r2, r2, #16128	@ 0x3f00
}

static inline void hri_osc32kctrl_write_OSCULP32K_reg(const void *const hw, hri_osc32kctrl_osculp32k_reg_t data)
{
	OSC32KCTRL_CRITICAL_SECTION_ENTER();
	((Osc32kctrl *)hw)->OSCULP32K.reg = data;
    6a98:	61da      	str	r2, [r3, #28]
	((Osc32kctrl *)hw)->RTCCTRL.reg = data;
    6a9a:	2201      	movs	r2, #1
    6a9c:	741a      	strb	r2, [r3, #16]
#endif
#endif

	hri_osc32kctrl_write_RTCCTRL_reg(hw, OSC32KCTRL_RTCCTRL_RTCSEL(CONF_RTCCTRL));
	(void)calib;
}
    6a9e:	4770      	bx	lr
    6aa0:	40001400 	.word	0x40001400

00006aa4 <gpio_set_pin_direction>:
 *                      GPIO_DIRECTION_OFF = Disables the pin
 *                      (low power state)
 */
static inline void gpio_set_pin_direction(const uint8_t pin, const enum gpio_direction direction)
{
	_gpio_set_direction((enum gpio_port)GPIO_PORT(pin), 1U << GPIO_PIN(pin), direction);
    6aa4:	f000 031f 	and.w	r3, r0, #31
{
    6aa8:	b530      	push	{r4, r5, lr}
	_gpio_set_direction((enum gpio_port)GPIO_PORT(pin), 1U << GPIO_PIN(pin), direction);
    6aaa:	2501      	movs	r5, #1
    6aac:	409d      	lsls	r5, r3
	((Port *)hw)->Group[submodule_index].DIRCLR.reg = mask;
    6aae:	0940      	lsrs	r0, r0, #5
    6ab0:	4b0d      	ldr	r3, [pc, #52]	@ (6ae8 <gpio_set_pin_direction+0x44>)
    6ab2:	01c0      	lsls	r0, r0, #7
 * \brief Set direction on port with mask
 */
static inline void _gpio_set_direction(const enum gpio_port port, const uint32_t mask,
                                       const enum gpio_direction direction)
{
	switch (direction) {
    6ab4:	2902      	cmp	r1, #2
		    PORT, port, PORT_WRCONFIG_HWSEL | PORT_WRCONFIG_WRPINCFG | ((mask & 0xffff0000) >> 16));
		break;

	case GPIO_DIRECTION_IN:
		hri_port_clear_DIR_reg(PORT, port, mask);
		hri_port_write_WRCONFIG_reg(PORT, port, PORT_WRCONFIG_WRPINCFG | PORT_WRCONFIG_INEN | (mask & 0xffff));
    6ab6:	b2ac      	uxth	r4, r5
		hri_port_write_WRCONFIG_reg(PORT,
		                            port,
		                            PORT_WRCONFIG_HWSEL | PORT_WRCONFIG_WRPINCFG | PORT_WRCONFIG_INEN
		                                | ((mask & 0xffff0000) >> 16));
    6ab8:	ea4f 4215 	mov.w	r2, r5, lsr #16
	((Port *)hw)->Group[submodule_index].DIRSET.reg = mask;
    6abc:	4403      	add	r3, r0
	switch (direction) {
    6abe:	d00b      	beq.n	6ad8 <gpio_set_pin_direction+0x34>
		hri_port_write_WRCONFIG_reg(PORT, port, PORT_WRCONFIG_WRPINCFG | PORT_WRCONFIG_INEN | (mask & 0xffff));
    6ac0:	f044 4480 	orr.w	r4, r4, #1073741824	@ 0x40000000
    6ac4:	f444 3400 	orr.w	r4, r4, #131072	@ 0x20000
		hri_port_write_WRCONFIG_reg(PORT,
    6ac8:	f042 4240 	orr.w	r2, r2, #3221225472	@ 0xc0000000
	((Port *)hw)->Group[submodule_index].DIRCLR.reg = mask;
    6acc:	605d      	str	r5, [r3, #4]
    6ace:	f442 3200 	orr.w	r2, r2, #131072	@ 0x20000

static inline void hri_port_write_WRCONFIG_reg(const void *const hw, uint8_t submodule_index,
                                               hri_port_wrconfig_reg_t data)
{
	PORT_CRITICAL_SECTION_ENTER();
	((Port *)hw)->Group[submodule_index].WRCONFIG.reg = data;
    6ad2:	629c      	str	r4, [r3, #40]	@ 0x28
    6ad4:	629a      	str	r2, [r3, #40]	@ 0x28
}
    6ad6:	bd30      	pop	{r4, r5, pc}
		break;

	case GPIO_DIRECTION_OUT:
		hri_port_set_DIR_reg(PORT, port, mask);
		hri_port_write_WRCONFIG_reg(PORT, port, PORT_WRCONFIG_WRPINCFG | (mask & 0xffff));
    6ad8:	f044 4480 	orr.w	r4, r4, #1073741824	@ 0x40000000
	((Port *)hw)->Group[submodule_index].DIRSET.reg = mask;
    6adc:	609d      	str	r5, [r3, #8]
		hri_port_write_WRCONFIG_reg(
    6ade:	f042 4240 	orr.w	r2, r2, #3221225472	@ 0xc0000000
	((Port *)hw)->Group[submodule_index].WRCONFIG.reg = data;
    6ae2:	629c      	str	r4, [r3, #40]	@ 0x28
    6ae4:	e7f6      	b.n	6ad4 <gpio_set_pin_direction+0x30>
    6ae6:	bf00      	nop
    6ae8:	41008000 	.word	0x41008000

00006aec <_gpio_set_pin_function>:

/**
 * \brief Set gpio pin function
 */
static inline void _gpio_set_pin_function(const uint32_t gpio, const uint32_t function)
{
    6aec:	b510      	push	{r4, lr}
    6aee:	4b15      	ldr	r3, [pc, #84]	@ (6b44 <_gpio_set_pin_function+0x58>)
	uint8_t port = GPIO_PORT(gpio);
	uint8_t pin  = GPIO_PIN(gpio);
    6af0:	b2c4      	uxtb	r4, r0
    6af2:	f000 021f 	and.w	r2, r0, #31
	uint8_t port = GPIO_PORT(gpio);
    6af6:	0940      	lsrs	r0, r0, #5
    6af8:	01c0      	lsls	r0, r0, #7

	if (function == GPIO_PIN_FUNCTION_OFF) {
    6afa:	3101      	adds	r1, #1
	tmp = ((Port *)hw)->Group[submodule_index].PINCFG[index].reg;
    6afc:	4403      	add	r3, r0
    6afe:	d107      	bne.n	6b10 <_gpio_set_pin_function+0x24>
    6b00:	4413      	add	r3, r2
    6b02:	f893 2040 	ldrb.w	r2, [r3, #64]	@ 0x40
	tmp &= ~PORT_PINCFG_PMUXEN;
    6b06:	f002 02fe 	and.w	r2, r2, #254	@ 0xfe
	((Port *)hw)->Group[submodule_index].PINCFG[index].reg = tmp;
    6b0a:	f883 2040 	strb.w	r2, [r3, #64]	@ 0x40
		} else {
			// Even numbered pin
			hri_port_write_PMUX_PMUXE_bf(PORT, port, pin >> 1, function & 0xffff);
		}
	}
}
    6b0e:	bd10      	pop	{r4, pc}
	tmp = ((Port *)hw)->Group[submodule_index].PINCFG[index].reg;
    6b10:	1898      	adds	r0, r3, r2
    6b12:	eb03 0352 	add.w	r3, r3, r2, lsr #1
    6b16:	f890 1040 	ldrb.w	r1, [r0, #64]	@ 0x40
	tmp |= value << PORT_PINCFG_PMUXEN_Pos;
    6b1a:	f041 0101 	orr.w	r1, r1, #1
	((Port *)hw)->Group[submodule_index].PINCFG[index].reg = tmp;
    6b1e:	f880 1040 	strb.w	r1, [r0, #64]	@ 0x40
	tmp = ((Port *)hw)->Group[submodule_index].PMUX[index].reg;
    6b22:	f893 2030 	ldrb.w	r2, [r3, #48]	@ 0x30
		if (pin & 1) {
    6b26:	f014 0f01 	tst.w	r4, #1
	tmp &= ~PORT_PMUX_PMUXO_Msk;
    6b2a:	bf15      	itete	ne
    6b2c:	f002 020f 	andne.w	r2, r2, #15
	tmp &= ~PORT_PMUX_PMUXE_Msk;
    6b30:	f002 02f0 	andeq.w	r2, r2, #240	@ 0xf0
	tmp |= PORT_PMUX_PMUXO(data);
    6b34:	f042 0220 	orrne.w	r2, r2, #32
	tmp |= PORT_PMUX_PMUXE(data);
    6b38:	f042 0202 	orreq.w	r2, r2, #2
	((Port *)hw)->Group[submodule_index].PMUX[index].reg = tmp;
    6b3c:	f883 2030 	strb.w	r2, [r3, #48]	@ 0x30
}
    6b40:	e7e5      	b.n	6b0e <_gpio_set_pin_function+0x22>
    6b42:	bf00      	nop
    6b44:	41008000 	.word	0x41008000

00006b48 <SPI_MRAM_PORT_init>:
#include <hal_init.h>

struct spi_m_sync_descriptor SPI_MRAM;

void SPI_MRAM_PORT_init(void)
{
    6b48:	b570      	push	{r4, r5, r6, lr}
	((Port *)hw)->Group[submodule_index].OUTCLR.reg = mask;
    6b4a:	4c14      	ldr	r4, [pc, #80]	@ (6b9c <SPI_MRAM_PORT_init+0x54>)
	                   // <false"> Low
	                   // <true"> High
	                   false);

	// Set pin direction to output
	gpio_set_pin_direction(MRAM_MOSI, GPIO_DIRECTION_OUT);
    6b4c:	4e14      	ldr	r6, [pc, #80]	@ (6ba0 <SPI_MRAM_PORT_init+0x58>)
	_gpio_set_pin_function(pin, function);
    6b4e:	4d15      	ldr	r5, [pc, #84]	@ (6ba4 <SPI_MRAM_PORT_init+0x5c>)
    6b50:	f44f 3380 	mov.w	r3, #65536	@ 0x10000
    6b54:	f8c4 3094 	str.w	r3, [r4, #148]	@ 0x94
    6b58:	2102      	movs	r1, #2
    6b5a:	2030      	movs	r0, #48	@ 0x30
    6b5c:	47b0      	blx	r6
    6b5e:	f501 1140 	add.w	r1, r1, #3145728	@ 0x300000
    6b62:	2030      	movs	r0, #48	@ 0x30
    6b64:	47a8      	blx	r5
    6b66:	f44f 3300 	mov.w	r3, #131072	@ 0x20000
    6b6a:	f8c4 3094 	str.w	r3, [r4, #148]	@ 0x94
	                   // <false"> Low
	                   // <true"> High
	                   false);

	// Set pin direction to output
	gpio_set_pin_direction(MRAM_SCK, GPIO_DIRECTION_OUT);
    6b6e:	2102      	movs	r1, #2
    6b70:	2031      	movs	r0, #49	@ 0x31
    6b72:	47b0      	blx	r6
    6b74:	f501 1144 	add.w	r1, r1, #3211264	@ 0x310000
    6b78:	2031      	movs	r0, #49	@ 0x31
    6b7a:	47a8      	blx	r5

	gpio_set_pin_function(MRAM_SCK, PINMUX_PB17C_SERCOM5_PAD1);

	// Set pin direction to input
	gpio_set_pin_direction(MRAM_MISO, GPIO_DIRECTION_IN);
    6b7c:	2101      	movs	r1, #1
    6b7e:	2032      	movs	r0, #50	@ 0x32
    6b80:	47b0      	blx	r6
	((Port *)hw)->Group[submodule_index].PINCFG[index].reg &= ~PORT_PINCFG_PULLEN;
    6b82:	f894 30d2 	ldrb.w	r3, [r4, #210]	@ 0xd2
    6b86:	4908      	ldr	r1, [pc, #32]	@ (6ba8 <SPI_MRAM_PORT_init+0x60>)
    6b88:	f003 03fb 	and.w	r3, r3, #251	@ 0xfb
    6b8c:	f884 30d2 	strb.w	r3, [r4, #210]	@ 0xd2
    6b90:	2032      	movs	r0, #50	@ 0x32
    6b92:	462b      	mov	r3, r5
	                       // <GPIO_PULL_UP"> Pull-up
	                       // <GPIO_PULL_DOWN"> Pull-down
	                       GPIO_PULL_OFF);

	gpio_set_pin_function(MRAM_MISO, PINMUX_PB18C_SERCOM5_PAD2);
}
    6b94:	e8bd 4070 	ldmia.w	sp!, {r4, r5, r6, lr}
    6b98:	4718      	bx	r3
    6b9a:	bf00      	nop
    6b9c:	41008000 	.word	0x41008000
    6ba0:	00006aa5 	.word	0x00006aa5
    6ba4:	00006aed 	.word	0x00006aed
    6ba8:	00320002 	.word	0x00320002

00006bac <SPI_MRAM_CLOCK_init>:
}

static inline void hri_gclk_write_PCHCTRL_reg(const void *const hw, uint8_t index, hri_gclk_pchctrl_reg_t data)
{
	GCLK_CRITICAL_SECTION_ENTER();
	((Gclk *)hw)->PCHCTRL[index].reg = data;
    6bac:	4b06      	ldr	r3, [pc, #24]	@ (6bc8 <SPI_MRAM_CLOCK_init+0x1c>)
    6bae:	2240      	movs	r2, #64	@ 0x40
    6bb0:	f8c3 210c 	str.w	r2, [r3, #268]	@ 0x10c
    6bb4:	2243      	movs	r2, #67	@ 0x43
    6bb6:	f8c3 208c 	str.w	r2, [r3, #140]	@ 0x8c
}

static inline void hri_mclk_set_APBDMASK_SERCOM5_bit(const void *const hw)
{
	MCLK_CRITICAL_SECTION_ENTER();
	((Mclk *)hw)->APBDMASK.reg |= MCLK_APBDMASK_SERCOM5;
    6bba:	4a04      	ldr	r2, [pc, #16]	@ (6bcc <SPI_MRAM_CLOCK_init+0x20>)
    6bbc:	6a13      	ldr	r3, [r2, #32]
    6bbe:	f043 0302 	orr.w	r3, r3, #2
    6bc2:	6213      	str	r3, [r2, #32]
{
	hri_gclk_write_PCHCTRL_reg(GCLK, SERCOM5_GCLK_ID_CORE, CONF_GCLK_SERCOM5_CORE_SRC | (1 << GCLK_PCHCTRL_CHEN_Pos));
	hri_gclk_write_PCHCTRL_reg(GCLK, SERCOM5_GCLK_ID_SLOW, CONF_GCLK_SERCOM5_SLOW_SRC | (1 << GCLK_PCHCTRL_CHEN_Pos));

	hri_mclk_set_APBDMASK_SERCOM5_bit(MCLK);
}
    6bc4:	4770      	bx	lr
    6bc6:	bf00      	nop
    6bc8:	40001c00 	.word	0x40001c00
    6bcc:	40000800 	.word	0x40000800

00006bd0 <SPI_MRAM_init>:

void SPI_MRAM_init(void)
{
    6bd0:	b510      	push	{r4, lr}
	SPI_MRAM_CLOCK_init();
    6bd2:	4b05      	ldr	r3, [pc, #20]	@ (6be8 <SPI_MRAM_init+0x18>)
	spi_m_sync_init(&SPI_MRAM, SERCOM5);
    6bd4:	4905      	ldr	r1, [pc, #20]	@ (6bec <SPI_MRAM_init+0x1c>)
    6bd6:	4806      	ldr	r0, [pc, #24]	@ (6bf0 <SPI_MRAM_init+0x20>)
	SPI_MRAM_CLOCK_init();
    6bd8:	4798      	blx	r3
	spi_m_sync_init(&SPI_MRAM, SERCOM5);
    6bda:	4b06      	ldr	r3, [pc, #24]	@ (6bf4 <SPI_MRAM_init+0x24>)
    6bdc:	4798      	blx	r3
	SPI_MRAM_PORT_init();
}
    6bde:	e8bd 4010 	ldmia.w	sp!, {r4, lr}
	SPI_MRAM_PORT_init();
    6be2:	4b05      	ldr	r3, [pc, #20]	@ (6bf8 <SPI_MRAM_init+0x28>)
    6be4:	4718      	bx	r3
    6be6:	bf00      	nop
    6be8:	00006bad 	.word	0x00006bad
    6bec:	43000400 	.word	0x43000400
    6bf0:	2003d034 	.word	0x2003d034
    6bf4:	00006809 	.word	0x00006809
    6bf8:	00006b49 	.word	0x00006b49

00006bfc <system_init>:
{
      delay_init(SysTick);
}

void system_init(void)
{
    6bfc:	e92d 41f0 	stmdb	sp!, {r4, r5, r6, r7, r8, lr}
	((Port *)hw)->Group[submodule_index].OUTSET.reg = mask;
    6c00:	4e32      	ldr	r6, [pc, #200]	@ (6ccc <system_init+0xd0>)
 * Currently the following initialization functions are supported:
 *  - System clock initialization
 */
static inline void init_mcu(void)
{
	_init_chip();
    6c02:	4b33      	ldr	r3, [pc, #204]	@ (6cd0 <system_init+0xd4>)
	                   // <false"> Low
	                   // <true"> High
	                   true);

	// Set pin direction to output
	gpio_set_pin_direction(MRAM1_CS, GPIO_DIRECTION_OUT);
    6c04:	4d33      	ldr	r5, [pc, #204]	@ (6cd4 <system_init+0xd8>)
    6c06:	4c34      	ldr	r4, [pc, #208]	@ (6cd8 <system_init+0xdc>)
    6c08:	2710      	movs	r7, #16
    6c0a:	4798      	blx	r3
    6c0c:	f8c6 7118 	str.w	r7, [r6, #280]	@ 0x118
    6c10:	2102      	movs	r1, #2
    6c12:	2044      	movs	r0, #68	@ 0x44
    6c14:	47a8      	blx	r5
    6c16:	f04f 31ff 	mov.w	r1, #4294967295	@ 0xffffffff
    6c1a:	2044      	movs	r0, #68	@ 0x44
    6c1c:	47a0      	blx	r4
    6c1e:	2320      	movs	r3, #32
    6c20:	f8c6 3118 	str.w	r3, [r6, #280]	@ 0x118
	                   // <false"> Low
	                   // <true"> High
	                   true);

	// Set pin direction to output
	gpio_set_pin_direction(MRAM1_RST, GPIO_DIRECTION_OUT);
    6c24:	2102      	movs	r1, #2
    6c26:	2045      	movs	r0, #69	@ 0x45
    6c28:	47a8      	blx	r5
    6c2a:	f04f 31ff 	mov.w	r1, #4294967295	@ 0xffffffff
    6c2e:	2045      	movs	r0, #69	@ 0x45
    6c30:	47a0      	blx	r4
    6c32:	f8c6 7118 	str.w	r7, [r6, #280]	@ 0x118
	                   // <false"> Low
	                   // <true"> High
	                   true);

	// Set pin direction to output
	gpio_set_pin_direction(MRAM2_CS, GPIO_DIRECTION_OUT);
    6c36:	2102      	movs	r1, #2
    6c38:	2044      	movs	r0, #68	@ 0x44
    6c3a:	47a8      	blx	r5
    6c3c:	f04f 31ff 	mov.w	r1, #4294967295	@ 0xffffffff
    6c40:	2044      	movs	r0, #68	@ 0x44
    6c42:	47a0      	blx	r4
    6c44:	2380      	movs	r3, #128	@ 0x80
    6c46:	f8c6 3118 	str.w	r3, [r6, #280]	@ 0x118
	                   // <false"> Low
	                   // <true"> High
	                   true);

	// Set pin direction to output
	gpio_set_pin_direction(MRAM2_RST, GPIO_DIRECTION_OUT);
    6c4a:	2102      	movs	r1, #2
    6c4c:	2047      	movs	r0, #71	@ 0x47
    6c4e:	47a8      	blx	r5
    6c50:	f04f 31ff 	mov.w	r1, #4294967295	@ 0xffffffff
    6c54:	2047      	movs	r0, #71	@ 0x47
    6c56:	47a0      	blx	r4
    6c58:	f44f 6380 	mov.w	r3, #1024	@ 0x400
    6c5c:	f8c6 3118 	str.w	r3, [r6, #280]	@ 0x118
	                   // <false"> Low
	                   // <true"> High
	                   true);

	// Set pin direction to output
	gpio_set_pin_direction(MRAM3_RST, GPIO_DIRECTION_OUT);
    6c60:	2102      	movs	r1, #2
    6c62:	204a      	movs	r0, #74	@ 0x4a
    6c64:	47a8      	blx	r5
    6c66:	f04f 31ff 	mov.w	r1, #4294967295	@ 0xffffffff
    6c6a:	204a      	movs	r0, #74	@ 0x4a
    6c6c:	47a0      	blx	r4
    6c6e:	f8c6 7118 	str.w	r7, [r6, #280]	@ 0x118
	                   // <false"> Low
	                   // <true"> High
	                   true);

	// Set pin direction to output
	gpio_set_pin_direction(MRAM3_CS, GPIO_DIRECTION_OUT);
    6c72:	2102      	movs	r1, #2
    6c74:	2044      	movs	r0, #68	@ 0x44
    6c76:	47a8      	blx	r5
    6c78:	f04f 31ff 	mov.w	r1, #4294967295	@ 0xffffffff
    6c7c:	2044      	movs	r0, #68	@ 0x44
    6c7e:	47a0      	blx	r4
    6c80:	f44f 5380 	mov.w	r3, #4096	@ 0x1000
    6c84:	f8c6 3118 	str.w	r3, [r6, #280]	@ 0x118
	                   // <false"> Low
	                   // <true"> High
	                   true);

	// Set pin direction to output
	gpio_set_pin_direction(MRAM3_WP, GPIO_DIRECTION_OUT);
    6c88:	2102      	movs	r1, #2
    6c8a:	204c      	movs	r0, #76	@ 0x4c
    6c8c:	47a8      	blx	r5
    6c8e:	f04f 31ff 	mov.w	r1, #4294967295	@ 0xffffffff
    6c92:	204c      	movs	r0, #76	@ 0x4c
    6c94:	47a0      	blx	r4
    6c96:	f44f 4380 	mov.w	r3, #16384	@ 0x4000
    6c9a:	f8c6 3118 	str.w	r3, [r6, #280]	@ 0x118
	                   // <false"> Low
	                   // <true"> High
	                   true);

	// Set pin direction to output
	gpio_set_pin_direction(MRAM1_WP, GPIO_DIRECTION_OUT);
    6c9e:	2102      	movs	r1, #2
    6ca0:	204e      	movs	r0, #78	@ 0x4e
    6ca2:	47a8      	blx	r5
    6ca4:	f04f 31ff 	mov.w	r1, #4294967295	@ 0xffffffff
    6ca8:	204e      	movs	r0, #78	@ 0x4e
    6caa:	47a0      	blx	r4
    6cac:	f44f 4300 	mov.w	r3, #32768	@ 0x8000
    6cb0:	f8c6 3118 	str.w	r3, [r6, #280]	@ 0x118
	                   // <false"> Low
	                   // <true"> High
	                   true);

	// Set pin direction to output
	gpio_set_pin_direction(MRAM2_WP, GPIO_DIRECTION_OUT);
    6cb4:	2102      	movs	r1, #2
    6cb6:	204f      	movs	r0, #79	@ 0x4f
    6cb8:	47a8      	blx	r5
    6cba:	f04f 31ff 	mov.w	r1, #4294967295	@ 0xffffffff
    6cbe:	204f      	movs	r0, #79	@ 0x4f
    6cc0:	47a0      	blx	r4
	gpio_set_pin_function(MRAM2_WP, GPIO_PIN_FUNCTION_OFF);

	SPI_MRAM_init();

	// delay_driver_init();
}
    6cc2:	e8bd 41f0 	ldmia.w	sp!, {r4, r5, r6, r7, r8, lr}
	SPI_MRAM_init();
    6cc6:	4b05      	ldr	r3, [pc, #20]	@ (6cdc <system_init+0xe0>)
    6cc8:	4718      	bx	r3
    6cca:	bf00      	nop
    6ccc:	41008000 	.word	0x41008000
    6cd0:	000068c1 	.word	0x000068c1
    6cd4:	00006aa5 	.word	0x00006aa5
    6cd8:	00006aed 	.word	0x00006aed
    6cdc:	00006bd1 	.word	0x00006bd1

00006ce0 <hri_sercomspi_wait_for_sync>:
	return ((Sercom *)hw)->I2CS.SYNCBUSY.reg & reg;
}

static inline void hri_sercomspi_wait_for_sync(const void *const hw, hri_sercomspi_syncbusy_reg_t reg)
{
	while (((Sercom *)hw)->SPI.SYNCBUSY.reg & reg) {
    6ce0:	69c3      	ldr	r3, [r0, #28]
    6ce2:	420b      	tst	r3, r1
    6ce4:	d1fc      	bne.n	6ce0 <hri_sercomspi_wait_for_sync>
	};
}
    6ce6:	4770      	bx	lr

00006ce8 <hri_sercomspi_clear_CTRLA_ENABLE_bit>:
}

static inline void hri_sercomspi_clear_CTRLA_ENABLE_bit(const void *const hw)
{
	SERCOM_CRITICAL_SECTION_ENTER();
	((Sercom *)hw)->SPI.CTRLA.reg &= ~SERCOM_SPI_CTRLA_ENABLE;
    6ce8:	6802      	ldr	r2, [r0, #0]
	hri_sercomspi_wait_for_sync(hw, SERCOM_SPI_SYNCBUSY_SWRST | SERCOM_SPI_SYNCBUSY_ENABLE);
    6cea:	4b03      	ldr	r3, [pc, #12]	@ (6cf8 <hri_sercomspi_clear_CTRLA_ENABLE_bit+0x10>)
	((Sercom *)hw)->SPI.CTRLA.reg &= ~SERCOM_SPI_CTRLA_ENABLE;
    6cec:	f022 0202 	bic.w	r2, r2, #2
    6cf0:	6002      	str	r2, [r0, #0]
	hri_sercomspi_wait_for_sync(hw, SERCOM_SPI_SYNCBUSY_SWRST | SERCOM_SPI_SYNCBUSY_ENABLE);
    6cf2:	2103      	movs	r1, #3
    6cf4:	4718      	bx	r3
    6cf6:	bf00      	nop
    6cf8:	00006ce1 	.word	0x00006ce1

00006cfc <_sercom_get_hardware_index>:

/**
 * \brief Retrieve ordinal number of the given sercom hardware instance
 */
static uint8_t _sercom_get_hardware_index(const void *const hw)
{
    6cfc:	b570      	push	{r4, r5, r6, lr}
	Sercom *const sercom_modules[] = SERCOM_INSTS;
    6cfe:	4d0c      	ldr	r5, [pc, #48]	@ (6d30 <_sercom_get_hardware_index+0x34>)
{
    6d00:	4606      	mov	r6, r0
	Sercom *const sercom_modules[] = SERCOM_INSTS;
    6d02:	cd0f      	ldmia	r5!, {r0, r1, r2, r3}
{
    6d04:	b088      	sub	sp, #32
	Sercom *const sercom_modules[] = SERCOM_INSTS;
    6d06:	466c      	mov	r4, sp
    6d08:	c40f      	stmia	r4!, {r0, r1, r2, r3}
    6d0a:	e895 000f 	ldmia.w	r5, {r0, r1, r2, r3}
    6d0e:	e884 000f 	stmia.w	r4, {r0, r1, r2, r3}
	/* Find index for SERCOM instance. */
	for (uint32_t i = 0; i < SERCOM_INST_NUM; i++) {
    6d12:	466a      	mov	r2, sp
    6d14:	2300      	movs	r3, #0
		if ((uint32_t)hw == (uint32_t)sercom_modules[i]) {
    6d16:	f852 1b04 	ldr.w	r1, [r2], #4
    6d1a:	42b1      	cmp	r1, r6
    6d1c:	d102      	bne.n	6d24 <_sercom_get_hardware_index+0x28>
			return i;
    6d1e:	b2d8      	uxtb	r0, r3
		}
	}
	return 0;
}
    6d20:	b008      	add	sp, #32
    6d22:	bd70      	pop	{r4, r5, r6, pc}
	for (uint32_t i = 0; i < SERCOM_INST_NUM; i++) {
    6d24:	3301      	adds	r3, #1
    6d26:	2b08      	cmp	r3, #8
    6d28:	d1f5      	bne.n	6d16 <_sercom_get_hardware_index+0x1a>
	return 0;
    6d2a:	2000      	movs	r0, #0
    6d2c:	e7f8      	b.n	6d20 <_sercom_get_hardware_index+0x24>
    6d2e:	bf00      	nop
    6d30:	00006fc4 	.word	0x00006fc4

00006d34 <_spi_sync_enable>:
 *  \param[in] hw Pointer to the hardware register base.
 *
 * \return Enabling status
 */
static int32_t _spi_sync_enable(void *const hw)
{
    6d34:	b508      	push	{r3, lr}
	return ((Sercom *)hw)->SPI.SYNCBUSY.reg & reg;
    6d36:	69c2      	ldr	r2, [r0, #28]
	if (hri_sercomspi_is_syncing(hw, SERCOM_SPI_SYNCBUSY_SWRST)) {
    6d38:	f012 0201 	ands.w	r2, r2, #1
    6d3c:	d108      	bne.n	6d50 <_spi_sync_enable+0x1c>
	((Sercom *)hw)->SPI.CTRLA.reg |= SERCOM_SPI_CTRLA_ENABLE;
    6d3e:	6803      	ldr	r3, [r0, #0]
    6d40:	f043 0302 	orr.w	r3, r3, #2
    6d44:	6003      	str	r3, [r0, #0]
	hri_sercomspi_wait_for_sync(hw, SERCOM_SPI_SYNCBUSY_SWRST | SERCOM_SPI_SYNCBUSY_ENABLE);
    6d46:	2103      	movs	r1, #3
    6d48:	4b03      	ldr	r3, [pc, #12]	@ (6d58 <_spi_sync_enable+0x24>)
    6d4a:	4798      	blx	r3
		return ERR_BUSY;
	}

	hri_sercomspi_set_CTRLA_ENABLE_bit(hw);

	return ERR_NONE;
    6d4c:	4610      	mov	r0, r2
}
    6d4e:	bd08      	pop	{r3, pc}
		return ERR_BUSY;
    6d50:	f06f 0003 	mvn.w	r0, #3
    6d54:	e7fb      	b.n	6d4e <_spi_sync_enable+0x1a>
    6d56:	bf00      	nop
    6d58:	00006ce1 	.word	0x00006ce1

00006d5c <_spi_m_sync_init>:

	return NULL;
}

int32_t _spi_m_sync_init(struct _spi_m_sync_dev *dev, void *const hw)
{
    6d5c:	b570      	push	{r4, r5, r6, lr}
	uint8_t n = _sercom_get_hardware_index((const void *)hw_addr);
    6d5e:	4b1b      	ldr	r3, [pc, #108]	@ (6dcc <_spi_m_sync_init+0x70>)
{
    6d60:	4606      	mov	r6, r0
	uint8_t n = _sercom_get_hardware_index((const void *)hw_addr);
    6d62:	4608      	mov	r0, r1
{
    6d64:	460c      	mov	r4, r1
	uint8_t n = _sercom_get_hardware_index((const void *)hw_addr);
    6d66:	4798      	blx	r3
		if (sercomspi_regs[i].n == n) {
    6d68:	2805      	cmp	r0, #5
    6d6a:	d12c      	bne.n	6dc6 <_spi_m_sync_init+0x6a>
	return ((Sercom *)hw)->SPI.SYNCBUSY.reg & reg;
    6d6c:	69e3      	ldr	r3, [r4, #28]
    6d6e:	4d18      	ldr	r5, [pc, #96]	@ (6dd0 <_spi_m_sync_init+0x74>)

	if (regs == NULL) {
		return ERR_INVALID_ARG;
	}

	if (!hri_sercomspi_is_syncing(hw, SERCOM_SPI_SYNCBUSY_SWRST)) {
    6d70:	f013 0f01 	tst.w	r3, #1
    6d74:	d10e      	bne.n	6d94 <_spi_m_sync_init+0x38>

static inline hri_sercomspi_ctrla_reg_t hri_sercomspi_get_CTRLA_reg(const void *const         hw,
                                                                    hri_sercomspi_ctrla_reg_t mask)
{
	uint32_t tmp;
	hri_sercomspi_wait_for_sync(hw, SERCOM_SPI_SYNCBUSY_SWRST | SERCOM_SPI_SYNCBUSY_ENABLE);
    6d76:	2103      	movs	r1, #3
    6d78:	4620      	mov	r0, r4
    6d7a:	47a8      	blx	r5
	tmp = ((Sercom *)hw)->SPI.CTRLA.reg;
    6d7c:	6823      	ldr	r3, [r4, #0]
		uint32_t mode = regs->ctrla & SERCOM_SPI_CTRLA_MODE_Msk;
		if (hri_sercomspi_get_CTRLA_reg(hw, SERCOM_SPI_CTRLA_ENABLE)) {
    6d7e:	079b      	lsls	r3, r3, #30
    6d80:	d503      	bpl.n	6d8a <_spi_m_sync_init+0x2e>
			hri_sercomspi_clear_CTRLA_ENABLE_bit(hw);
    6d82:	4b14      	ldr	r3, [pc, #80]	@ (6dd4 <_spi_m_sync_init+0x78>)
    6d84:	4798      	blx	r3
			hri_sercomspi_wait_for_sync(hw, SERCOM_SPI_SYNCBUSY_ENABLE);
    6d86:	2102      	movs	r1, #2
    6d88:	47a8      	blx	r5
}

static inline void hri_sercomspi_write_CTRLA_reg(const void *const hw, hri_sercomspi_ctrla_reg_t data)
{
	SERCOM_CRITICAL_SECTION_ENTER();
	((Sercom *)hw)->SPI.CTRLA.reg = data;
    6d8a:	230d      	movs	r3, #13
    6d8c:	6023      	str	r3, [r4, #0]
	hri_sercomspi_wait_for_sync(hw, SERCOM_SPI_SYNCBUSY_SWRST | SERCOM_SPI_SYNCBUSY_ENABLE);
    6d8e:	2103      	movs	r1, #3
    6d90:	4620      	mov	r0, r4
    6d92:	47a8      	blx	r5
		}
		hri_sercomspi_write_CTRLA_reg(hw, SERCOM_SPI_CTRLA_SWRST | mode);
	}
	hri_sercomspi_wait_for_sync(hw, SERCOM_SPI_SYNCBUSY_SWRST);
    6d94:	4620      	mov	r0, r4
    6d96:	2101      	movs	r1, #1
    6d98:	47a8      	blx	r5
	((Sercom *)hw)->SPI.CTRLA.reg = data;
    6d9a:	4b0f      	ldr	r3, [pc, #60]	@ (6dd8 <_spi_m_sync_init+0x7c>)

	dev->prvt = hw;
    6d9c:	6034      	str	r4, [r6, #0]
	hri_sercomspi_wait_for_sync(hw, SERCOM_SPI_SYNCBUSY_SWRST | SERCOM_SPI_SYNCBUSY_ENABLE);
    6d9e:	2103      	movs	r1, #3
	((Sercom *)hw)->SPI.CTRLA.reg = data;
    6da0:	6023      	str	r3, [r4, #0]
	hri_sercomspi_wait_for_sync(hw, SERCOM_SPI_SYNCBUSY_SWRST | SERCOM_SPI_SYNCBUSY_ENABLE);
    6da2:	47a8      	blx	r5
}

static inline void hri_sercomspi_write_CTRLB_reg(const void *const hw, hri_sercomspi_ctrlb_reg_t data)
{
	SERCOM_CRITICAL_SECTION_ENTER();
	((Sercom *)hw)->SPI.CTRLB.reg = data;
    6da4:	f44f 3300 	mov.w	r3, #131072	@ 0x20000
    6da8:	6063      	str	r3, [r4, #4]
	hri_sercomspi_wait_for_sync(hw, SERCOM_SPI_SYNCBUSY_MASK);
    6daa:	2117      	movs	r1, #23
    6dac:	47a8      	blx	r5
}

static inline void hri_sercomspi_write_BAUD_reg(const void *const hw, hri_sercomspi_baud_reg_t data)
{
	SERCOM_CRITICAL_SECTION_ENTER();
	((Sercom *)hw)->SPI.BAUD.reg = data;
    6dae:	2377      	movs	r3, #119	@ 0x77
    6db0:	7323      	strb	r3, [r4, #12]
	} else {
		_spi_load_regs_master(hw, regs);
	}

	/* Load character size from default hardware configuration */
	dev->char_size = ((regs->ctrlb & SERCOM_SPI_CTRLB_CHSIZE_Msk) == 0) ? 1 : 2;
    6db2:	2201      	movs	r2, #1
}

static inline void hri_sercomspi_write_DBGCTRL_reg(const void *const hw, hri_sercomspi_dbgctrl_reg_t data)
{
	SERCOM_CRITICAL_SECTION_ENTER();
	((Sercom *)hw)->SPI.DBGCTRL.reg = data;
    6db4:	2300      	movs	r3, #0
    6db6:	f884 3030 	strb.w	r3, [r4, #48]	@ 0x30
    6dba:	7132      	strb	r2, [r6, #4]

	dev->dummy_byte = regs->dummy_byte;
    6dbc:	f240 12ff 	movw	r2, #511	@ 0x1ff
    6dc0:	80f2      	strh	r2, [r6, #6]

	return ERR_NONE;
    6dc2:	4618      	mov	r0, r3
}
    6dc4:	bd70      	pop	{r4, r5, r6, pc}
		return ERR_INVALID_ARG;
    6dc6:	f06f 000c 	mvn.w	r0, #12
    6dca:	e7fb      	b.n	6dc4 <_spi_m_sync_init+0x68>
    6dcc:	00006cfd 	.word	0x00006cfd
    6dd0:	00006ce1 	.word	0x00006ce1
    6dd4:	00006ce9 	.word	0x00006ce9
    6dd8:	0020000c 	.word	0x0020000c

00006ddc <_spi_m_sync_enable>:

int32_t _spi_m_sync_enable(struct _spi_m_sync_dev *dev)
{
	ASSERT(dev && dev->prvt);

	return _spi_sync_enable(dev->prvt);
    6ddc:	6800      	ldr	r0, [r0, #0]
    6dde:	4b01      	ldr	r3, [pc, #4]	@ (6de4 <_spi_m_sync_enable+0x8>)
    6de0:	4718      	bx	r3
    6de2:	bf00      	nop
    6de4:	00006d35 	.word	0x00006d35

00006de8 <_spi_m_sync_trans>:

	return ERR_NONE;
}

int32_t _spi_m_sync_trans(struct _spi_m_sync_dev *dev, const struct spi_msg *msg)
{
    6de8:	e92d 43f8 	stmdb	sp!, {r3, r4, r5, r6, r7, r8, r9, lr}
	void *                 hw   = dev->prvt;
    6dec:	6804      	ldr	r4, [r0, #0]
	int32_t                rc   = 0;
	struct _spi_trans_ctrl ctrl = {msg->txbuf, msg->rxbuf, 0, 0, dev->char_size};
    6dee:	f890 9004 	ldrb.w	r9, [r0, #4]
	return ((Sercom *)hw)->SPI.SYNCBUSY.reg & reg;
    6df2:	69e2      	ldr	r2, [r4, #28]

	ASSERT(dev && hw);

	/* If settings are not applied (pending), we can not go on */
	if (hri_sercomspi_is_syncing(
    6df4:	f012 0207 	ands.w	r2, r2, #7
	struct _spi_trans_ctrl ctrl = {msg->txbuf, msg->rxbuf, 0, 0, dev->char_size};
    6df8:	e9d1 5600 	ldrd	r5, r6, [r1]
{
    6dfc:	4607      	mov	r7, r0
    6dfe:	4688      	mov	r8, r1
	if (hri_sercomspi_is_syncing(
    6e00:	d13f      	bne.n	6e82 <_spi_m_sync_trans+0x9a>
	hri_sercomspi_wait_for_sync(hw, SERCOM_SPI_SYNCBUSY_SWRST | SERCOM_SPI_SYNCBUSY_ENABLE);
    6e02:	4b23      	ldr	r3, [pc, #140]	@ (6e90 <_spi_m_sync_trans+0xa8>)
    6e04:	4620      	mov	r0, r4
    6e06:	2103      	movs	r1, #3
    6e08:	4798      	blx	r3
	tmp = ((Sercom *)hw)->SPI.CTRLA.reg;
    6e0a:	6823      	ldr	r3, [r4, #0]
	        hw, (SERCOM_SPI_SYNCBUSY_SWRST | SERCOM_SPI_SYNCBUSY_ENABLE | SERCOM_SPI_SYNCBUSY_CTRLB))) {
		return ERR_BUSY;
	}

	/* SPI must be enabled to start synchronous transfer */
	if (!hri_sercomspi_get_CTRLA_ENABLE_bit(hw)) {
    6e0c:	0798      	lsls	r0, r3, #30
    6e0e:	d53b      	bpl.n	6e88 <_spi_m_sync_trans+0xa0>
	struct _spi_trans_ctrl ctrl = {msg->txbuf, msg->rxbuf, 0, 0, dev->char_size};
    6e10:	4613      	mov	r3, r2
	return ((Sercom *)hw)->SPI.INTFLAG.reg;
    6e12:	7e21      	ldrb	r1, [r4, #24]
    6e14:	b2c8      	uxtb	r0, r1
	if (!(iflag & SERCOM_SPI_INTFLAG_RXC)) {
    6e16:	0749      	lsls	r1, r1, #29
    6e18:	d40e      	bmi.n	6e38 <_spi_m_sync_trans+0x50>
		uint32_t iflag = hri_sercomspi_read_INTFLAG_reg(hw);

		if (!_spi_rx_check_and_receive(hw, iflag, &ctrl)) {
			/* In master mode, do not start next byte before previous byte received
			 * to make better output waveform */
			if (ctrl.rxcnt >= ctrl.txcnt) {
    6e1a:	4293      	cmp	r3, r2
    6e1c:	d317      	bcc.n	6e4e <_spi_m_sync_trans+0x66>
	if (!(SERCOM_SPI_INTFLAG_DRE & iflag)) {
    6e1e:	07c1      	lsls	r1, r0, #31
    6e20:	d515      	bpl.n	6e4e <_spi_m_sync_trans+0x66>
	if (ctrl->txbuf) {
    6e22:	b1f5      	cbz	r5, 6e62 <_spi_m_sync_trans+0x7a>
		if (ctrl->char_size > 1) {
    6e24:	f1b9 0f01 	cmp.w	r9, #1
		data = *ctrl->txbuf++;
    6e28:	bf94      	ite	ls
    6e2a:	f815 1b01 	ldrbls.w	r1, [r5], #1
			data |= (*ctrl->txbuf) << 8;
    6e2e:	f835 1b02 	ldrhhi.w	r1, [r5], #2
	((Sercom *)hw)->SPI.DATA.reg = data;
    6e32:	62a1      	str	r1, [r4, #40]	@ 0x28
	ctrl->txcnt++;
    6e34:	3201      	adds	r2, #1
}
    6e36:	e00a      	b.n	6e4e <_spi_m_sync_trans+0x66>
	return ((Sercom *)hw)->SPI.DATA.reg;
    6e38:	6aa1      	ldr	r1, [r4, #40]	@ 0x28
	if (ctrl->rxbuf) {
    6e3a:	b13e      	cbz	r6, 6e4c <_spi_m_sync_trans+0x64>
		if (ctrl->char_size > 1) {
    6e3c:	f1b9 0f01 	cmp.w	r9, #1
		*ctrl->rxbuf++ = (uint8_t)data;
    6e40:	7031      	strb	r1, [r6, #0]
			*ctrl->rxbuf++ = (uint8_t)(data >> 8);
    6e42:	bf85      	ittet	hi
    6e44:	0a09      	lsrhi	r1, r1, #8
    6e46:	7071      	strbhi	r1, [r6, #1]
		*ctrl->rxbuf++ = (uint8_t)data;
    6e48:	3601      	addls	r6, #1
			*ctrl->rxbuf++ = (uint8_t)(data >> 8);
    6e4a:	3602      	addhi	r6, #2
	ctrl->rxcnt++;
    6e4c:	3301      	adds	r3, #1
	if (SERCOM_SPI_INTFLAG_ERROR & iflag) {
    6e4e:	0601      	lsls	r1, r0, #24
    6e50:	d409      	bmi.n	6e66 <_spi_m_sync_trans+0x7e>
		rc = _spi_err_check(iflag, hw);

		if (rc < 0) {
			break;
		}
		if (ctrl.txcnt >= msg->size && ctrl.rxcnt >= msg->size) {
    6e52:	f8d8 1008 	ldr.w	r1, [r8, #8]
    6e56:	4291      	cmp	r1, r2
    6e58:	d8db      	bhi.n	6e12 <_spi_m_sync_trans+0x2a>
    6e5a:	4299      	cmp	r1, r3
    6e5c:	d8d9      	bhi.n	6e12 <_spi_m_sync_trans+0x2a>
			rc = ctrl.txcnt;
    6e5e:	4610      	mov	r0, r2
	while (!(hri_sercomspi_get_INTFLAG_reg(hw, SERCOM_SPI_INTFLAG_TXC | SERCOM_SPI_INTFLAG_DRE))) {
    6e60:	e008      	b.n	6e74 <_spi_m_sync_trans+0x8c>
		data = dummy;
    6e62:	88f9      	ldrh	r1, [r7, #6]
    6e64:	e7e5      	b.n	6e32 <_spi_m_sync_trans+0x4a>
}

static inline void hri_sercomspi_clear_STATUS_reg(const void *const hw, hri_sercomspi_status_reg_t mask)
{
	SERCOM_CRITICAL_SECTION_ENTER();
	((Sercom *)hw)->SPI.STATUS.reg = mask;
    6e66:	f64f 73ff 	movw	r3, #65535	@ 0xffff
    6e6a:	8363      	strh	r3, [r4, #26]
	((Sercom *)hw)->SPI.INTFLAG.reg = mask;
    6e6c:	2380      	movs	r3, #128	@ 0x80
    6e6e:	7623      	strb	r3, [r4, #24]
		rc = _spi_err_check(iflag, hw);
    6e70:	f06f 0012 	mvn.w	r0, #18
	tmp = ((Sercom *)hw)->SPI.INTFLAG.reg;
    6e74:	7e23      	ldrb	r3, [r4, #24]
	while (!(hri_sercomspi_get_INTFLAG_reg(hw, SERCOM_SPI_INTFLAG_TXC | SERCOM_SPI_INTFLAG_DRE))) {
    6e76:	079b      	lsls	r3, r3, #30
    6e78:	d0fc      	beq.n	6e74 <_spi_m_sync_trans+0x8c>
	((Sercom *)hw)->SPI.INTFLAG.reg = mask;
    6e7a:	2303      	movs	r3, #3
    6e7c:	7623      	strb	r3, [r4, #24]
	}
	/* Wait until SPI bus idle */
	_spi_wait_bus_idle(hw);

	return rc;
}
    6e7e:	e8bd 83f8 	ldmia.w	sp!, {r3, r4, r5, r6, r7, r8, r9, pc}
		return ERR_BUSY;
    6e82:	f06f 0003 	mvn.w	r0, #3
    6e86:	e7fa      	b.n	6e7e <_spi_m_sync_trans+0x96>
		return ERR_NOT_INITIALIZED;
    6e88:	f06f 0013 	mvn.w	r0, #19
    6e8c:	e7f7      	b.n	6e7e <_spi_m_sync_trans+0x96>
    6e8e:	bf00      	nop
    6e90:	00006ce1 	.word	0x00006ce1

00006e94 <cache_init>:
/**
 * \brief Initialize cache module
 */
int32_t cache_init(void)
{
	return _cmcc_init();
    6e94:	4b00      	ldr	r3, [pc, #0]	@ (6e98 <cache_init+0x4>)
    6e96:	4718      	bx	r3
    6e98:	00006ebd 	.word	0x00006ebd

00006e9c <_cmcc_enable>:
	return ((Cmcc *)hw)->TYPE.reg;
}

static inline bool hri_cmcc_get_SR_CSTS_bit(const void *const hw)
{
	return (((Cmcc *)hw)->SR.reg & CMCC_SR_CSTS) >> CMCC_SR_CSTS_Pos;
    6e9c:	68c3      	ldr	r3, [r0, #12]
 */
static inline int32_t _cmcc_enable(const void *hw)
{
	int32_t return_value;

	if (_is_cache_disabled(hw)) {
    6e9e:	07db      	lsls	r3, r3, #31
    6ea0:	d409      	bmi.n	6eb6 <_cmcc_enable+0x1a>
}

static inline void hri_cmcc_write_CTRL_reg(const void *const hw, hri_cmcc_ctrl_reg_t data)
{
	CMCC_CRITICAL_SECTION_ENTER();
	((Cmcc *)hw)->CTRL.reg = data;
    6ea2:	2301      	movs	r3, #1
    6ea4:	6083      	str	r3, [r0, #8]
	return (((Cmcc *)hw)->SR.reg & CMCC_SR_CSTS) >> CMCC_SR_CSTS_Pos;
    6ea6:	68c3      	ldr	r3, [r0, #12]
		hri_cmcc_write_CTRL_reg(hw, CMCC_CTRL_CEN);
		return_value = _is_cache_enabled(hw) == true ? ERR_NONE : ERR_FAILURE;
    6ea8:	f013 0f01 	tst.w	r3, #1
    6eac:	bf0c      	ite	eq
    6eae:	f06f 001d 	mvneq.w	r0, #29
    6eb2:	2000      	movne	r0, #0
    6eb4:	4770      	bx	lr
	} else {
		return_value = ERR_NO_CHANGE;
    6eb6:	f06f 0001 	mvn.w	r0, #1
	}

	return return_value;
}
    6eba:	4770      	bx	lr

00006ebc <_cmcc_init>:
	((Cmcc *)hw)->CTRL.reg = data;
    6ebc:	4a0c      	ldr	r2, [pc, #48]	@ (6ef0 <_cmcc_init+0x34>)
 * This function does low level cache configuration.
 *
 * \return initialize status
 */
int32_t _cmcc_init(void)
{
    6ebe:	b508      	push	{r3, lr}
    6ec0:	2300      	movs	r3, #0
    6ec2:	6093      	str	r3, [r2, #8]
	return (((Cmcc *)hw)->SR.reg & CMCC_SR_CSTS) >> CMCC_SR_CSTS_Pos;
    6ec4:	68d3      	ldr	r3, [r2, #12]
 * \brief Cache disable
 */
static inline int32_t _cmcc_disable(const void *hw)
{
	hri_cmcc_write_CTRL_reg(hw, (CMCC_DISABLE << CMCC_CTRL_CEN_Pos));
	while (!(_is_cache_disabled(hw)))
    6ec6:	07d9      	lsls	r1, r3, #31
    6ec8:	d4fc      	bmi.n	6ec4 <_cmcc_init+0x8>
    6eca:	68d3      	ldr	r3, [r2, #12]
	int32_t return_value;

	_cmcc_disable(CMCC);

	if (_is_cache_disabled(CMCC)) {
    6ecc:	07db      	lsls	r3, r3, #31
    6ece:	d40c      	bmi.n	6eea <_cmcc_init+0x2e>
	((Cmcc *)hw)->CFG.reg = data;
    6ed0:	2320      	movs	r3, #32
    6ed2:	6053      	str	r3, [r2, #4]
		hri_cmcc_write_CFG_reg(
		    CMCC,
		    (CMCC_CFG_CSIZESW(CONF_CMCC_CACHE_SIZE) | (CONF_CMCC_DATA_CACHE_DISABLE << CMCC_CFG_DCDIS_Pos)
		     | (CONF_CMCC_INST_CACHE_DISABLE << CMCC_CFG_ICDIS_Pos) | (CONF_CMCC_CLK_GATING_DISABLE)));

		_cmcc_enable(CMCC);
    6ed4:	4806      	ldr	r0, [pc, #24]	@ (6ef0 <_cmcc_init+0x34>)
    6ed6:	4b07      	ldr	r3, [pc, #28]	@ (6ef4 <_cmcc_init+0x38>)
    6ed8:	4798      	blx	r3
	return (((Cmcc *)hw)->SR.reg & CMCC_SR_CSTS) >> CMCC_SR_CSTS_Pos;
    6eda:	68d3      	ldr	r3, [r2, #12]
		return_value = _is_cache_enabled(CMCC) == true ? ERR_NONE : ERR_FAILURE;
    6edc:	f013 0f01 	tst.w	r3, #1
    6ee0:	bf0c      	ite	eq
    6ee2:	f06f 001d 	mvneq.w	r0, #29
    6ee6:	2000      	movne	r0, #0
	} else {
		return_value = ERR_NOT_INITIALIZED;
	}

	return return_value;
}
    6ee8:	bd08      	pop	{r3, pc}
		return_value = ERR_NOT_INITIALIZED;
    6eea:	f06f 0013 	mvn.w	r0, #19
    6eee:	e7fb      	b.n	6ee8 <_cmcc_init+0x2c>
    6ef0:	41006000 	.word	0x41006000
    6ef4:	00006e9d 	.word	0x00006e9d

00006ef8 <Dummy_Handler>:
/**
 * \brief Default interrupt handler for unused IRQs.
 */
void Dummy_Handler(void)
{
	while (1) {
    6ef8:	e7fe      	b.n	6ef8 <Dummy_Handler>
	...

00006efc <Reset_Handler>:
{
    6efc:	b508      	push	{r3, lr}
	if (pSrc != pDest) {
    6efe:	4a14      	ldr	r2, [pc, #80]	@ (6f50 <Reset_Handler+0x54>)
    6f00:	4b14      	ldr	r3, [pc, #80]	@ (6f54 <Reset_Handler+0x58>)
    6f02:	429a      	cmp	r2, r3
    6f04:	d002      	beq.n	6f0c <Reset_Handler+0x10>
		for (; pDest < &_erelocate;) {
    6f06:	4914      	ldr	r1, [pc, #80]	@ (6f58 <Reset_Handler+0x5c>)
    6f08:	428b      	cmp	r3, r1
    6f0a:	d318      	bcc.n	6f3e <Reset_Handler+0x42>
	pSrc  = &_etext;
    6f0c:	4b13      	ldr	r3, [pc, #76]	@ (6f5c <Reset_Handler+0x60>)
	for (pDest = &_szero; pDest < &_ezero;) {
    6f0e:	4a14      	ldr	r2, [pc, #80]	@ (6f60 <Reset_Handler+0x64>)
		*pDest++ = 0;
    6f10:	2100      	movs	r1, #0
	for (pDest = &_szero; pDest < &_ezero;) {
    6f12:	4293      	cmp	r3, r2
    6f14:	d318      	bcc.n	6f48 <Reset_Handler+0x4c>
	SCB->VTOR = ((uint32_t)pSrc & SCB_VTOR_TBLOFF_Msk);
    6f16:	4a13      	ldr	r2, [pc, #76]	@ (6f64 <Reset_Handler+0x68>)
    6f18:	4b13      	ldr	r3, [pc, #76]	@ (6f68 <Reset_Handler+0x6c>)
    6f1a:	f022 027f 	bic.w	r2, r2, #127	@ 0x7f
    6f1e:	609a      	str	r2, [r3, #8]
	SCB->CPACR |= (0xFu << 20);
    6f20:	f8d3 2088 	ldr.w	r2, [r3, #136]	@ 0x88
    6f24:	f442 0270 	orr.w	r2, r2, #15728640	@ 0xf00000
    6f28:	f8c3 2088 	str.w	r2, [r3, #136]	@ 0x88
  \details Acts as a special kind of Data Memory Barrier.
           It completes when all explicit memory accesses before this instruction complete.
 */
__STATIC_FORCEINLINE void __DSB(void)
{
  __ASM volatile ("dsb 0xF":::"memory");
    6f2c:	f3bf 8f4f 	dsb	sy
  __ASM volatile ("isb 0xF":::"memory");
    6f30:	f3bf 8f6f 	isb	sy
	__libc_init_array();
    6f34:	4b0d      	ldr	r3, [pc, #52]	@ (6f6c <Reset_Handler+0x70>)
    6f36:	4798      	blx	r3
	main();
    6f38:	4b0d      	ldr	r3, [pc, #52]	@ (6f70 <Reset_Handler+0x74>)
    6f3a:	4798      	blx	r3
	while (1)
    6f3c:	e7fe      	b.n	6f3c <Reset_Handler+0x40>
			*pDest++ = *pSrc++;
    6f3e:	f852 0b04 	ldr.w	r0, [r2], #4
    6f42:	f843 0b04 	str.w	r0, [r3], #4
    6f46:	e7df      	b.n	6f08 <Reset_Handler+0xc>
		*pDest++ = 0;
    6f48:	f843 1b04 	str.w	r1, [r3], #4
    6f4c:	e7e1      	b.n	6f12 <Reset_Handler+0x16>
    6f4e:	bf00      	nop
    6f50:	0000701c 	.word	0x0000701c
    6f54:	2003d000 	.word	0x2003d000
    6f58:	2003d004 	.word	0x2003d004
    6f5c:	2003d004 	.word	0x2003d004
    6f60:	2003d04c 	.word	0x2003d04c
    6f64:	00006000 	.word	0x00006000
    6f68:	e000ed00 	.word	0xe000ed00
    6f6c:	00006f7d 	.word	0x00006f7d
    6f70:	0000630d 	.word	0x0000630d

00006f74 <atmel_start_init>:
/**
 * Initializes MCU, drivers and middleware in the project
 **/
void atmel_start_init(void)
{
	system_init();
    6f74:	4b00      	ldr	r3, [pc, #0]	@ (6f78 <atmel_start_init+0x4>)
    6f76:	4718      	bx	r3
    6f78:	00006bfd 	.word	0x00006bfd

00006f7c <__libc_init_array>:
    6f7c:	b570      	push	{r4, r5, r6, lr}
    6f7e:	4b0d      	ldr	r3, [pc, #52]	@ (6fb4 <__libc_init_array+0x38>)
    6f80:	4d0d      	ldr	r5, [pc, #52]	@ (6fb8 <__libc_init_array+0x3c>)
    6f82:	1b5b      	subs	r3, r3, r5
    6f84:	109c      	asrs	r4, r3, #2
    6f86:	2600      	movs	r6, #0
    6f88:	42a6      	cmp	r6, r4
    6f8a:	d109      	bne.n	6fa0 <__libc_init_array+0x24>
    6f8c:	f000 f836 	bl	6ffc <_init>
    6f90:	4d0a      	ldr	r5, [pc, #40]	@ (6fbc <__libc_init_array+0x40>)
    6f92:	4b0b      	ldr	r3, [pc, #44]	@ (6fc0 <__libc_init_array+0x44>)
    6f94:	1b5b      	subs	r3, r3, r5
    6f96:	109c      	asrs	r4, r3, #2
    6f98:	2600      	movs	r6, #0
    6f9a:	42a6      	cmp	r6, r4
    6f9c:	d105      	bne.n	6faa <__libc_init_array+0x2e>
    6f9e:	bd70      	pop	{r4, r5, r6, pc}
    6fa0:	f855 3b04 	ldr.w	r3, [r5], #4
    6fa4:	4798      	blx	r3
    6fa6:	3601      	adds	r6, #1
    6fa8:	e7ee      	b.n	6f88 <__libc_init_array+0xc>
    6faa:	f855 3b04 	ldr.w	r3, [r5], #4
    6fae:	4798      	blx	r3
    6fb0:	3601      	adds	r6, #1
    6fb2:	e7f2      	b.n	6f9a <__libc_init_array+0x1e>
    6fb4:	00007008 	.word	0x00007008
    6fb8:	00007008 	.word	0x00007008
    6fbc:	00007008 	.word	0x00007008
    6fc0:	0000700c 	.word	0x0000700c
    6fc4:	40003000 	.word	0x40003000
    6fc8:	40003400 	.word	0x40003400
    6fcc:	41012000 	.word	0x41012000
    6fd0:	41014000 	.word	0x41014000
    6fd4:	43000000 	.word	0x43000000
    6fd8:	43000400 	.word	0x43000400
    6fdc:	43000800 	.word	0x43000800
    6fe0:	43000c00 	.word	0x43000c00

00006fe4 <_i2cms>:
	...

00006ffc <_init>:
    6ffc:	b5f8      	push	{r3, r4, r5, r6, r7, lr}
    6ffe:	bf00      	nop
    7000:	bcf8      	pop	{r3, r4, r5, r6, r7}
    7002:	bc08      	pop	{r3}
    7004:	469e      	mov	lr, r3
    7006:	4770      	bx	lr

00007008 <__frame_dummy_init_array_entry>:
    7008:	62cd 0000                                   .b..

0000700c <_fini>:
    700c:	b5f8      	push	{r3, r4, r5, r6, r7, lr}
    700e:	bf00      	nop
    7010:	bcf8      	pop	{r3, r4, r5, r6, r7}
    7012:	bc08      	pop	{r3}
    7014:	469e      	mov	lr, r3
    7016:	4770      	bx	lr

00007018 <__do_global_dtors_aux_fini_array_entry>:
    7018:	62a5 0000                                   .b..
